ccollections
Counter
p0
((dp1
S'nellie mcclung'
p2
I2
sS''
p3
I8
sS'ruth sawyer'
p4
I2
sS'th\xe9r\xe8se martin (of lisieux)'
p5
I1
sS'edward carpenter'
p6
I2
sS'ronald sutherland gower'
p7
I2
sS'walter j. de la mare'
p8
I2
sS'william black'
p9
I6
sS'mary e. phillips'
p10
I2
sS'hilaire belloc'
p11
I2
sS'arthur l. hayward'
p12
I2
sS'mary e. wilkins'
p13
I2
sS'frank wing'
p14
I1
sS'lyon gardiner tyler'
p15
I2
sS'edith b. lowry'
p16
I1
sS'zane grey'
p17
I10
sS'william archer'
p18
I4
sS'plutarch'
p19
I5
sS'william lilly'
p20
I2
sS'oswald chettle mazengarb et al.'
p21
I2
sS'edwin bryant'
p22
I2
sS'jonathan swift'
p23
I17
sS'susan warner'
p24
I6
sS'joseph sheridan lefanu'
p25
I5
sS'richard  le gallienne'
p26
I2
sS'pedro antonio de alarc\xf3n'
p27
I1
sS'emily hickey'
p28
I2
sS'william henry holmes'
p29
I2
sS'julia corner'
p30
I1
sS'selected and edited with an introduction by ernest bernbaum'
p31
I2
sS'albert ernest jenks'
p32
I1
sS'william harrison ainsworth'
p33
I6
sS'arthur w. pinero'
p34
I2
sS'r. g.'
p35
I1
sS'manuel tamayo y baus'
p36
I1
sS'elizabeth bibesco'
p37
I2
sS'ernest dowson and arthur moore'
p38
I2
sS'timothy thomas fortune'
p39
I2
sS'myrtle reed'
p40
I1
sS'mary frances blaisdell'
p41
I1
sS'madame de montespan'
p42
I1
sS'jennie maria (drinkwater) conklin'
p43
I2
sS'samuel m. zwemer'
p44
I2
sS'frances elliot'
p45
I2
sS'"the duchess"'
p46
I2
sS'rollo burslem'
p47
I2
sS'robert s. rait'
p48
I2
sS'a.h. beesley'
p49
I2
sS'jordanes'
p50
I2
sS'samuel rogers'
p51
I2
sS'jacob joshua levison'
p52
I2
sS'carl holliday'
p53
I2
sS'anna chapin ray'
p54
I2
sS'edward dicey'
p55
I1
sS'james richardson'
p56
I7
sS'percy brebner'
p57
I2
sS'pindar'
p58
I2
sS'alfred castner king'
p59
I2
sS'william chandler bagley'
p60
I2
sS'h. w. nevinson'
p61
I2
sS'george william erskine russell'
p62
I2
sS'william e. hutchinson'
p63
I2
sS'william james stillman'
p64
I2
sS'pansy (aka. isabella m. alden)'
p65
I1
sS'john yeardley'
p66
I2
sS'john m. taylor'
p67
I2
sS'jerome b. lavay'
p68
I2
sS'mary raymond shipman andrews'
p69
I8
sS'john richard green'
p70
I4
sS'janet aldridge'
p71
I4
sS'louis hughes'
p72
I1
sS'hugh quigley'
p73
I2
sS'plautus titus maccius'
p74
I2
sS'katrina trask'
p75
I2
sS'alfred church'
p76
I2
sS'william j. long'
p77
I4
sS'harry leon wilson'
p78
I14
sS'ada leverson'
p79
I2
sS'george henry boker'
p80
I2
sS'edward lucas white'
p81
I2
sS'mrs. e. d. e. n. southworth'
p82
I6
sS'lilian bell'
p83
I6
sS'terence j. macswiney'
p84
I2
sS'william wood'
p85
I10
sS'johann george buehler'
p86
I2
sS'james lane allen'
p87
I4
sS'allen wilson porterfield'
p88
I2
sS'herbert strang'
p89
I4
sS'johann wolfgang von goethe'
p90
I5
sS'dillon wallace'
p91
I5
sS'joseph addison and richard steele'
p92
I2
sS'charlotte porter and helen a. clarke'
p93
I2
sS'mrs mary spring corning'
p94
I2
sS'adele garrison'
p95
I2
sS'laura e. richards'
p96
I3
sS's. a. ferrall'
p97
I2
sS'francis rolt-wheeler'
p98
I2
sS'catherine h. birney'
p99
I2
sS'marcus porcius cato'
p100
I2
sS'edmond about'
p101
I2
sS'james fenimore cooper'
p102
I18
sS'clara augusta jones trask'
p103
I2
sS'erpanet'
p104
I1
sS'e. l. kolb'
p105
I2
sS'h.e. blair'
p106
I2
sS'robert l. drake'
p107
I3
sS'war department'
p108
I2
sS'rosa nouchette carey'
p109
I2
sS'mrs. meer hassan ali'
p110
I2
sS'g. j. younghusband'
p111
I2
sS'rahul alvares'
p112
I1
sS'washington matthews'
p113
I2
sS'thomas houston'
p114
I2
sS'melvin moses knight, iva lowther peters, and phyllis mary blanchard'
p115
I2
sS'thomas kearns'
p116
I1
sS'harry d. kitson'
p117
I2
sS'alice c. fletcher'
p118
I2
sS'emile souvestre'
p119
I1
sS'george ade'
p120
I5
sS'e. phillips oppenheim'
p121
I25
sS'miss coulton'
p122
I2
sS'j. b. henry savigny and alexander correard'
p123
I1
sS'andrew murray'
p124
I1
sS'baron edward john moreton drax plunkett dunsany'
p125
I2
sS'edward channing'
p126
I2
sS'elizabeth von arnim'
p127
I4
sS'leland powers'
p128
I2
sS'vachel lindsay'
p129
I2
sS'james oliver curwood'
p130
I13
sS'mrs. molesworth'
p131
I4
sS'martin brown ruud'
p132
I2
sS'stanley john weyman'
p133
I2
sS'wesley bradshaw'
p134
I1
sS'charles ebert orr'
p135
I1
sS'josephine preston peabody'
p136
I3
sS'major w. e frye'
p137
I2
sS'emilie f. carlen'
p138
I1
sS'john william de forest'
p139
I2
sS'christopher leadem'
p140
I2
sS'richard bartholdt and a. christen'
p141
I2
sS'henry copp\xe9e'
p142
I1
sS'henry edward krehbiel'
p143
I1
sS'e. a. wallis budge'
p144
I5
sS'edward l. wheeler'
p145
I2
sS'arnold joseph toynbee'
p146
I2
sS'william d. lighthall'
p147
I2
sS'alice cholmondeley'
p148
I1
sS'anatole france'
p149
I3
sS'may agnes fleming'
p150
I3
sS'william apes'
p151
I2
sS'a. g. payne'
p152
I1
sS'pardee butler'
p153
I1
sS'count agenor de gasparin'
p154
I1
sS'bronson howard'
p155
I2
sS'vicente blasco ibanez'
p156
I3
sS'john brown (of wamphray)'
p157
I1
sS'pierre loti'
p158
I4
sS'julia pardoe'
p159
I6
sS'ithamar howell'
p160
I1
sS'sue petigru bowen'
p161
I2
sS'john r. bolles'
p162
I2
sS'ralph waldo emerson'
p163
I5
sS'frances wilson huard'
p164
I2
sS'george robert aberigh-mackay'
p165
I2
sS'jacob abbott'
p166
I11
sS'a (arnold) henry savage-landor'
p167
I2
sS'clemence housman'
p168
I1
sS'frank richard stockton'
p169
I10
sS'willard bonte'
p170
I1
sS'charles ellms'
p171
I2
sS'arthur j. rees'
p172
I2
sS'harry kemp'
p173
I2
sS'lewis theobald'
p174
I3
sS'catherine a. warfield'
p175
I2
sS'william holmes mcguffey'
p176
I9
sS'edmond rostand'
p177
I1
sS'john l. stoddard'
p178
I4
sS'thomas a. janvier'
p179
I2
sS'lillie dehegermann-lindencrone'
p180
I2
sS'ichabod s. spencer'
p181
I1
sS'william starr myers'
p182
I1
sS'h. irving hancock'
p183
I23
sS'jane ellen harrison'
p184
I3
sS'bernadin de saint-pierre'
p185
I1
sS'george edmundson'
p186
I2
sS'by marshall saunders'
p187
I1
sS'stephen graham'
p188
I2
sS'charles kingsley'
p189
I22
sS'sewell ford'
p190
I4
sS'hannah wolley'
p191
I2
sS'katharine newlin burt'
p192
I2
sS'henri barbusse'
p193
I4
sS'michael fairless'
p194
I1
sS'la salle corbell pickett'
p195
I2
sS'richard flecknoe and joseph warton'
p196
I2
sS'frederick swainson'
p197
I2
sS'william minto'
p198
I2
sS'david steele'
p199
I1
sS'f. haverfield'
p200
I4
sS'francesco saverio nitti'
p201
I2
sS'r. norman grisewood'
p202
I2
sS'florence akin'
p203
I1
sS'francis c. woodworth'
p204
I1
sS'st john d seymour'
p205
I1
sS'emile de girardin'
p206
I2
sS'george bernard shaw'
p207
I4
sS'edward marshall and charles t. dazey'
p208
I1
sS'henry wager halleck'
p209
I2
sS'alfred lewis'
p210
I1
sS'bernard edward j. capes'
p211
I2
sS'mrs. milne rae'
p212
I2
sS'tom bullock'
p213
I1
sS'translated by kisari mohan ganguli'
p214
I1
sS'translated by martha gilbert dickinson bianchi'
p215
I2
sS'translated by eirikr magnusson and william morris'
p216
I2
sS'charles j. archard'
p217
I2
sS'lebbeus mitchell'
p218
I1
sS'herbert spencer, henry fawcett, frederic harrison and other'
p219
I2
sS'a.e. johnson'
p220
I2
sS'paul leicester ford'
p221
I5
sS'hugo muensterberg'
p222
I2
sS'cora lenore williams'
p223
I1
sS'vance barnum'
p224
I2
sS'arnold haultain'
p225
I2
sS'marie de france'
p226
I2
sS'ida husted harper'
p227
I2
sS'charles a. beard and mary r. beard'
p228
I2
sS's. weir mitchell'
p229
I6
sS'donald a. mackenzie'
p230
I5
sS'john w. hales'
p231
I1
sS'"e.f.s." of "the westminster gazette"'
p232
I2
sS'boethius'
p233
I2
sS'william  pemble'
p234
I2
sS'h. l. gordon'
p235
I2
sS'selected and edited by c. alphonso smith'
p236
I2
sS'oliver onions'
p237
I2
sS'henry h. vail'
p238
I1
sS'louis joseph vance'
p239
I6
sS'george routledge'
p240
I2
sS'alfred russel wallace'
p241
I4
sS'stanley shaw'
p242
I2
sS'edward alexander powell'
p243
I3
sS'winifred faraday'
p244
I4
sS'margery williams'
p245
I1
sS'george mccready price'
p246
I2
sS'william n. brown'
p247
I2
sS'w. warde fowler'
p248
I2
sS'john bunyan'
p249
I1
sS'b. m. bower'
p250
I17
sS'daniel g. brinton'
p251
I4
sS'edward tyson'
p252
I2
sS'lucius seneca'
p253
I1
sS'samuel p. orth'
p254
I2
sS'charles j. abbey and john h. overton'
p255
I2
sS'robert graves'
p256
I2
sS'frank  swinnerton'
p257
I2
sS"rudyard kipling, ella d'arcy, arthur morrison, arthur conan doyle,"
p258
I2
sS'henryk sienkiewicz'
p259
I2
sS'alice duer miller'
p260
I9
sS'andrew archibald paton'
p261
I2
sS'isaac disraeli'
p262
I2
sS'(edited by william knight)'
p263
I2
sS't. r. swinburne'
p264
I2
sS'peter hampson ditchfield'
p265
I4
sS'f. marion crawford'
p266
I28
sS'frederic g. kenyon'
p267
I2
sS'john freeman'
p268
I2
sS'mrs. alfred gatty'
p269
I2
sS'edited by ida m. tarbell'
p270
I2
sS'william griffith'
p271
I1
sS'andrew lang'
p272
I20
sS'michael doheny'
p273
I2
sS'w. j. loftie'
p274
I2
sS'g.k. chesterton'
p275
I9
sS'howard pyle'
p276
I5
sS'buffalo bill (william frederick cody)'
p277
I2
sS'gertrude atherton'
p278
I6
sS'tenney frank'
p279
I2
sS'g.a. henty'
p280
I2
sS's. d. gordon'
p281
I7
sS'ernest raymond'
p282
I2
sS'zora hurston'
p283
I1
sS'hendrik conscience'
p284
I4
sS'unknown'
p285
I32
sS'john t. morse'
p286
I4
sS'j. murray mitchell and william muir'
p287
I2
sS'arthur phillip'
p288
I2
sS'john kendrick bangs'
p289
I8
sS'patrick macgill'
p290
I2
sS'margaret fuller ossoli'
p291
I6
sS'john c. symons'
p292
I1
sS'margaret bird steinmetz'
p293
I2
sS'sir john lauder'
p294
I2
sS'michael phelan'
p295
I1
sS'thomas gray'
p296
I2
sS'everett titsworth tomlinson'
p297
I2
sS'edmund campion'
p298
I1
sS'scott nearing'
p299
I2
sS'louise muehlbach'
p300
I1
sS's. h. hammond'
p301
I1
sS'john jay chapman'
p302
I2
sS'oliver spafford'
p303
I1
sS'willis j. abbot'
p304
I2
sS'a. d. crake'
p305
I4
sS'edward streeter'
p306
I2
sS'charles alden seltzer'
p307
I2
sS'james r. driscoll'
p308
I2
sS'h.w. gibson'
p309
I1
sS'george tyler northup'
p310
I1
sS'bertrand w. sinclair'
p311
I6
sS'a. g. riddle'
p312
I1
sS'eugene walter'
p313
I2
sS'eliza southall'
p314
I2
sS'sidney l. gulick'
p315
I2
sS'denis florence maccarthy'
p316
I1
sS'mahatma gandhi'
p317
I1
sS'john stuart mill'
p318
I6
sS't. g. steward'
p319
I2
sS'cyrus townsend brady'
p320
I3
sS'alfred noyes'
p321
I1
sS'timothy templeton'
p322
I1
sS'h. a. guerber'
p323
I2
sS'robert louis stevenson'
p324
I8
sS'mrs. henry de la pasture'
p325
I2
sS'westel w. willoughby and william f. willoughby'
p326
I2
sS'newell dwight hillis'
p327
I1
sS'james o. brayman'
p328
I2
sS'thomas alfred spalding'
p329
I2
sS'george biddell airy'
p330
I2
sS'samuel f. b. morse'
p331
I4
sS'retold by oliver huckel'
p332
I2
sS'william watson'
p333
I2
sS'arthur mee, j. a. hammerton, eds.'
p334
I2
sS'mabell s. c. smith'
p335
I2
sS'frederic austin ogg'
p336
I2
sS'edwin e. slosson'
p337
I2
sS'eleanor hallowell abbott'
p338
I4
sS'john rushworth jellicoe'
p339
I2
sS'francois pierre guillaume guizot'
p340
I6
sS'john sargeaunt'
p341
I2
sS'a. j. dawson'
p342
I2
sS'nicholai velimirovic'
p343
I2
sS'johann george b\xfchler'
p344
I1
sS'richard haines'
p345
I1
sS'freeman e. miller'
p346
I2
sS'frances ellen watkins harper'
p347
I3
sS'edith wharton'
p348
I4
sS'ulysses s. grant'
p349
I11
sS'edward godfrey'
p350
I2
sS'r. austin freeman'
p351
I11
sS'nathaniel pitt langford'
p352
I2
sS'charles dickens and wilkie collins'
p353
I1
sS'joseph c. lincoln'
p354
I2
sS'edited by james d. richardson'
p355
I8
sS'catharine parr traill'
p356
I1
sS'miss emma roberts'
p357
I2
sS'edward r. pease'
p358
I2
sS'arthur kitson'
p359
I2
sS'annie fellows-johnston'
p360
I4
sS'john drinkwater'
p361
I3
sS'george lang'
p362
I1
sS'b. g. jefferis and j. l. nichols'
p363
I1
sS'charles francis horne'
p364
I2
sS'lewis melville'
p365
I4
sS'william james'
p366
I4
sS'nellie l. mcclung'
p367
I5
sS'arthur schopenhauer'
p368
I17
sS'isabel c. byrum'
p369
I2
sS'fred brandt and andrew y. wood'
p370
I1
sS'candace wheeler'
p371
I2
sS'w. h. t. dau'
p372
I2
sS'delmer eugene croft'
p373
I1
sS'erwin w. roessler and alfred remy'
p374
I2
sS'maurice maeterlinck'
p375
I2
sS'zona gale'
p376
I4
sS'hobart pasha'
p377
I3
sS'w.g. tarrant'
p378
I2
sS'philip gibbs'
p379
I2
sS'ernest alfred vizetelly'
p380
I1
sS'stephen oliver'
p381
I2
sS'james holman'
p382
I2
sS'j. m. w. silver'
p383
I2
sS'alexander hume'
p384
I3
sS'r. cohen'
p385
I2
sS'mabel collins'
p386
I2
sS'william o. s. gilly'
p387
I2
sS'annie fellows johnston'
p388
I12
sS'padraic colum'
p389
I1
sS'henry coppee'
p390
I2
sS'arthur mee and j.a. hammerton, eds.'
p391
I6
sS'lydia maria francis child'
p392
I2
sS'fay-cooper cole'
p393
I4
sS'maud diver'
p394
I2
sS'edgcumbe staley'
p395
I2
sS'john lyth'
p396
I2
sS'r. m. ballantyne'
p397
I2
sS'charles john griffiths'
p398
I2
sS'w. e. b. du bois'
p399
I4
sS'arthur cosslett smith'
p400
I2
sS'frederick marryat'
p401
I10
sS'e.h. aitken, (aka edward hamilton)'
p402
I2
sS'henry sessions souttar'
p403
I1
sS'william carleton'
p404
I21
sS'u. s. grant, w. t. sherman, p. h. sheridan'
p405
I1
sS'horace walpole'
p406
I6
sS'a. hyatt verrill'
p407
I1
sS'william carew hazlitt'
p408
I2
sS'dorothy canfield fisher'
p409
I2
sS'george horace lorimer'
p410
I4
sS'desiderius erasmus'
p411
I7
sS'plato'
p412
I2
sS'e. h. blair'
p413
I4
sS'charles johnston'
p414
I2
sS'frank berkeley smith'
p415
I1
sS'susanna centlivre'
p416
I2
sS'david j. deane'
p417
I2
sS'l. maria child'
p418
I1
sS'william roscoe thayer'
p419
I2
sS'r.a. streatfeild'
p420
I2
sS'colette willy, aka colette'
p421
I2
sS'old sleuth (harlan p. halsey)'
p422
I1
sS'wadsworth camp'
p423
I1
sS'thornton burgess'
p424
I1
sS'arthur  ransome'
p425
I1
sS'augusta stevenson'
p426
I4
sS'theodore ledyard cuyler'
p427
I2
sS'walter camp'
p428
I1
sS'alfred carmichael'
p429
I1
sS'j. thorne smith, jr.'
p430
I1
sS'georg ebers'
p431
I20
sS'edited by rev. james wood'
p432
I2
sS'j. b. henry savigny and alexander corr\xe9ard'
p433
I1
sS'thomas anderton'
p434
I2
sS'e.h. blair'
p435
I2
sS'friedrich wieck'
p436
I2
sS'huber gray buehler'
p437
I2
sS'procopius'
p438
I6
sS'm. m. pattison muir'
p439
I2
sS'george barr mccutcheon'
p440
I10
sS'thomas t stoddart'
p441
I2
sS'c. houston goudiss and alberta m. goudiss'
p442
I2
sS'anna alice chapin'
p443
I1
sS'honore de balzac'
p444
I116
sS'charles lamb'
p445
I6
sS'marc monnier'
p446
I3
sS'f. smith'
p447
I2
sS'burton e. stevenson'
p448
I6
sS'edward burnett tylor'
p449
I2
sS'ronald mcneill'
p450
I2
sS'james cox'
p451
I2
sS'j. w. duffield'
p452
I1
sS'mary e. wilkins-freeman'
p453
I2
sS'sara d. jenkins'
p454
I1
sS'william godwin'
p455
I8
sS'anna laetitia barbauld'
p456
I1
sS'aphra behn'
p457
I2
sS'rush rhees'
p458
I3
sS'sir william edward parry'
p459
I4
sS'johannes ewald'
p460
I1
sS'john maurice miller'
p461
I2
sS'robert smith surtees'
p462
I2
sS'cecil b. hartley'
p463
I2
sS'frederic bastiat'
p464
I3
sS'pierre besnier'
p465
I2
sS'sir owen woodhouse, r. b. cooke, ivor l. m. richardson, duncan'
p466
I2
sS'(mrs.) tilly e. (matilda coxe evans) stevenson'
p467
I3
sS'robert kerr'
p468
I34
sS'henry kitchell webster'
p469
I4
sS'george andrew reisner'
p470
I1
sS'charles whistler'
p471
I4
sS'us copyright office'
p472
I1
sS'samuel cobb'
p473
I2
sS'theo. stephenson browne'
p474
I1
sS'percival christopher wren'
p475
I4
sS'a. russell (alexander russell) bond'
p476
I1
sS'arthur ruhl'
p477
I2
sS'marco polo and rustichello of pisa'
p478
I4
sS'alice b. emerson'
p479
I4
sS'fryniwyd tennyson jesse'
p480
I2
sS'elia wilkinson peattie'
p481
I2
sS'john mason'
p482
I1
sS'charles butler'
p483
I2
sS'allen chapman'
p484
I3
sS'browning, elizabeth barrett'
p485
I1
sS'harriet beecher stowe'
p486
I3
sS'sir harry lauder'
p487
I1
sS'samuel johnson, thomas parnell, thomas gray, and tobias smollett'
p488
I2
sS'franklin h. head'
p489
I2
sS'richard c. squires'
p490
I1
sS'mrs. sherwood [aka: mrs. mary martha sherwood]'
p491
I1
sS'lucy furman'
p492
I1
sS'john p. marquand'
p493
I1
sS'charles garvice'
p494
I4
sS'henry sloane coffin'
p495
I2
sS'thomas lodge'
p496
I2
sS'baroness emmuska orczy'
p497
I2
sS'maud petitt'
p498
I2
sS'samuel taylor coleridge'
p499
I4
sS'alexander bain'
p500
I2
sS'hannah webster foster'
p501
I2
sS'f. w. bain'
p502
I2
sS'sue ainslie clark and edith wyatt'
p503
I2
sS'e. somerville and martin ross'
p504
I2
sS'j. middleton murry'
p505
I2
sS'francis lynde'
p506
I10
sS'erasmus darwin'
p507
I4
sS'george forbes'
p508
I1
sS"john o'rourke"
p509
I2
sS'percy c. ainsworth'
p510
I2
sS'helen campbell'
p511
I4
sS'ethel m. dell'
p512
I19
sS'william jennings bryan'
p513
I2
sS'j. bayard taylor'
p514
I2
sS'justus miles forman'
p515
I2
sS'frank harris'
p516
I4
sS'john todhunter'
p517
I2
sS'society for pure english'
p518
I6
sS'mrs. hungerford'
p519
I2
sS'padriac colum'
p520
I3
sS'ellen m. cyr'
p521
I2
sS'daniel drayton'
p522
I2
sS'irving bacheller'
p523
I11
sS'baroness orczy'
p524
I4
sS'camille mauclair'
p525
I2
sS'john george nicolay and john hay'
p526
I2
sS'robert lee berry'
p527
I1
sS'william g.t. shedd'
p528
I2
sS's. m. edwardes, c.v.o.'
p529
I2
sS'charles m. skinner'
p530
I10
sS'eugene a. hecker'
p531
I2
sS'cutcliffe hyne'
p532
I2
sS'william a. alcott'
p533
I2
sS'p. r. kincaid'
p534
I1
sS'department of defense'
p535
I1
sS'paul lacroix'
p536
I2
sS'archie s. milton and otto k. wohlers'
p537
I2
sS'frederick lawton'
p538
I1
sS'george henry miles'
p539
I2
sS'horatia k. f. eden'
p540
I2
sS'sir john barrow'
p541
I2
sS'henry cabot lodge'
p542
I6
sS'henry c. watson'
p543
I4
sS'harold avery'
p544
I1
sS'octavus roy cohen'
p545
I2
sS'joanna c. colcord'
p546
I2
sS'amelia ann blandford edwards'
p547
I2
sS'rene rapin'
p548
I2
sS'james milne'
p549
I1
sS'george brannon'
p550
I2
sS'james weldon johnson'
p551
I2
sS'the rev. e. cobham brewer, ll.d.'
p552
I2
sS'g.j. whyte-melville'
p553
I2
sS'george santayana'
p554
I4
sS'r.a. van middeldyk'
p555
I2
sS'laura rountree smith'
p556
I1
sS'paul bourget'
p557
I1
sS'henry newbolt'
p558
I2
sS'andrew jackson howell, jr.'
p559
I1
sS'james whitcomb riley'
p560
I9
sS'ernest poole'
p561
I4
sS'a. c. bradley'
p562
I2
sS'p. doddridge'
p563
I2
sS'george edward woodberry'
p564
I2
sS'algot lange'
p565
I2
sS'basil mathews'
p566
I2
sS'ethel home'
p567
I2
sS'bessie marchant'
p568
I1
sS'samuel wesley'
p569
I2
sS'ella rodman church'
p570
I2
sS'etta blaisdell mcdonald'
p571
I2
sS'charles georges souli'
p572
I1
sS't. h. huxley'
p573
I2
sS'the seybert commission'
p574
I2
sS'j.s. le fanu'
p575
I2
sS'ellen terry'
p576
I2
sS'albert bigelow paine'
p577
I8
sS'johanna (heusser) spyri'
p578
I1
sS'john crombie brown'
p579
I1
sS'eliza poor donner houghton'
p580
I2
sS'archibald sayce'
p581
I2
sS'ross kay'
p582
I1
sS'jean f. terry'
p583
I2
sS'rhoda broughton'
p584
I2
sS'w.b. yeats'
p585
I1
sS'henry hawkins brampton'
p586
I2
sS'g. h. mair'
p587
I2
sS'grace wood'
p588
I2
sS'henryk sienkiewicz,'
p589
I2
sS'commissioner booth-tucker'
p590
I2
sS'anthony benezet'
p591
I2
sS'johann david wyss'
p592
I2
sS'allen johnson'
p593
I2
sS'henry van dyke'
p594
I13
sS'alun'
p595
I1
sS'george wharton james'
p596
I5
sS'giovanni targioni-tozzetti, guido menasci, and pietro mascagni'
p597
I1
sS'peter abelard'
p598
I2
sS'p. h. kritzinger and r. d. mcdonald'
p599
I2
sS'g. lowes dickinson'
p600
I4
sS'j. m. barrie'
p601
I3
sS'h. p. blavatsky'
p602
I2
sS'joseph a. seiss'
p603
I2
sS'samuel warren'
p604
I2
sS'elsie de wolfe'
p605
I2
sS'donald ferguson'
p606
I4
sS'charles eliot'
p607
I8
sS'edited by e. h. blair and j. a. robertson'
p608
I2
sS'kate langley bosher'
p609
I7
sS'gerhart hauptmann'
p610
I2
sS'fredric lozo'
p611
I1
sS'jeffery farnol'
p612
I6
sS'ian maclaren'
p613
I6
sS'claude phillips'
p614
I4
sS'william stevenson'
p615
I2
sS's.m. dubnow'
p616
I2
sS'steele mackaye'
p617
I2
sS'albert g. mackey'
p618
I5
sS'randall parrish'
p619
I5
sS'mabel osgood wright and elliott coues'
p620
I2
sS'dorothy quigley'
p621
I2
sS'"a pastor"'
p622
I1
sS'john cotton dana'
p623
I2
sS'george herbert betts'
p624
I2
sS'ada woodruff anderson'
p625
I2
sS'isaac newton'
p626
I5
sS'a.d.l.'
p627
I2
sS'nasreddin hoca'
p628
I1
sS'frank f. ellinwood'
p629
I2
sS'agnes rush burr'
p630
I2
sS'samuel kirkham'
p631
I3
sS'teachers of the school street universalist sunday school, boston'
p632
I1
sS'philip h. sheridan'
p633
I1
sS'brander matthews'
p634
I2
sS'william hayley'
p635
I1
sS'mary hazelton wade'
p636
I2
sS'john s. c. abbott'
p637
I8
sS'a. w. dimock'
p638
I1
sS'arthur christopher benson'
p639
I8
sS'henry w. nevinson'
p640
I2
sS'mark twain'
p641
I7
sS'mrs. robert hoskins'
p642
I1
sS'james t. lightwood'
p643
I2
sS'albert gardner robinson'
p644
I2
sS'cousin cicely'
p645
I2
sS'john a. hobson'
p646
I2
sS'j. a. graves'
p647
I1
sS'isaac barrow'
p648
I1
sS'grace livingston hill'
p649
I4
sS'elizabeth moxon'
p650
I1
sS'anna buchan (writing as o. douglas)'
p651
I2
sS'carter g. woodson'
p652
I2
sS'henry herbert knibbs'
p653
I4
sS's. b. banerjea'
p654
I2
sS'harry castlemon'
p655
I4
sS'katherine shortall'
p656
I2
sS'f. g. [frederick george] smith'
p657
I2
sS'james allen'
p658
I2
sS'charles w. chesnutt'
p659
I3
sS'jacob s. raisin'
p660
I2
sS'lloyd roberts'
p661
I1
sS'john bell bouton'
p662
I2
sS'american tract society'
p663
I2
sS'edmund s. lorenz'
p664
I2
sS'may edginton'
p665
I2
sS'filson young'
p666
I10
sS'jane addams'
p667
I6
sS'e. l. lomax'
p668
I2
sS'rheta childe dorr'
p669
I2
sS'mabel c. hawley'
p670
I2
sS'helene a. guerber'
p671
I2
sS'elizabeth stoddard'
p672
I4
sS'charles rann kennedy'
p673
I1
sS'charles j. barnes, et al.'
p674
I3
sS'edward bok'
p675
I2
sS'julian stafford corbett'
p676
I2
sS'matthew flinders'
p677
I4
sS'thomas a. wise'
p678
I2
sS'g. k. chesterton'
p679
I15
sS'horace green'
p680
I1
sS'robert lynd'
p681
I5
sS'jean froissart, thomas malory, raphael holinshed'
p682
I2
sS'harriet t. comstock'
p683
I2
sS'george collingridge'
p684
I2
sS'niccolo machiavelli'
p685
I3
sS'jean de la fontaine'
p686
I4
sS'mrs. lambert chambers'
p687
I2
sS'nannie r. glass'
p688
I2
sS'nikola tesla'
p689
I1
sS'mary randolph'
p690
I1
sS'charles norris williamson'
p691
I2
sS'george tyrrell'
p692
I2
sS'gordon bates'
p693
I2
sS'e. v. lucas'
p694
I4
sS'w. e. penn'
p695
I1
sS'john spargo'
p696
I2
sS'arthur sullivan'
p697
I1
sS'henry a. murray'
p698
I2
sS'laurence oliphant'
p699
I2
sS'granville barker'
p700
I1
sS'john harris'
p701
I2
sS'h.w. long'
p702
I2
sS'andrew stephenson'
p703
I2
sS'john cowper powys'
p704
I2
sS'mrs. f.l. gillette'
p705
I2
sS'stewart edward white and samuel hopkins adams'
p706
I2
sS'lytton strachey'
p707
I2
sS'william sharp'
p708
I2
sS'e. p. barrows'
p709
I2
sS'thomas gent'
p710
I4
sS'abraham lincoln'
p711
I12
sS'william allen knight'
p712
I1
sS'richard harding davis'
p713
I16
sS'harold speed'
p714
I2
sS'martin luther'
p715
I1
sS'timothy flint'
p716
I1
sS'george meredith'
p717
I18
sS'john r. lynch'
p718
I2
sS'charles goddard'
p719
I1
sS'nathaniel hawthorne'
p720
I5
sS'an english lady'
p721
I5
sS'jules claretie'
p722
I3
sS'b. m bower'
p723
I2
sS'ellen h. richards'
p724
I2
sS'dawson turner'
p725
I4
sS'samuel j. record'
p726
I2
sS'algernon charles swinburne'
p727
I9
sS'sophie may'
p728
I7
sS'sir arthur thomas quiller-couch'
p729
I4
sS'george puttenham'
p730
I2
sS'susannah minific gunning'
p731
I2
sS'frank r. stockton'
p732
I15
sS'lawrence j. leslie'
p733
I1
sS'j. k. huysmans'
p734
I2
sS'caroline f. e. spurgeon'
p735
I3
sS'john fiske'
p736
I9
sS'nevill forbes, arnold j. toynbee, d. mitrany, d.g. hogarth'
p737
I2
sS'gustavo adolfo becquer'
p738
I2
sS'israel abrahams'
p739
I2
sS'walter de la mare'
p740
I4
sS'samuel pepys'
p741
I85
sS'daniel a. goodsell'
p742
I2
sS'theodore watts-dunton'
p743
I2
sS'charles felton pidgin'
p744
I1
sS'ambrose bierce (aka: dod grile)'
p745
I2
sS'charles d. poston'
p746
I2
sS'maurice hewlett'
p747
I5
sS'dornford yates'
p748
I2
sS'a.e.w. mason'
p749
I8
sS'ibn tufail'
p750
I2
sS'george eliot'
p751
I4
sS'vaughan kester'
p752
I2
sS'barkham burroughs'
p753
I2
sS'saint mochuda'
p754
I1
sS'margaret rebecca piper'
p755
I2
sS'andrew lee'
p756
I1
sS'frances anne kemble'
p757
I2
sS'j. atwood.slater'
p758
I2
sS'francis beaumont and john fletcher'
p759
I15
sS'd. starke'
p760
I2
sS'e.phillips oppenheim'
p761
I1
sS'edgar allan poe'
p762
I5
sS'caradoc evans'
p763
I2
sS'toyokichi iyenaga'
p764
I2
sS'frederick, lord bishop of exeter'
p765
I1
sS'jackson gregory'
p766
I8
sS'orison swett marden'
p767
I2
sS'emilie f. carl\xe9n'
p768
I1
sS'edna ferber'
p769
I6
sS'yacki raizizun'
p770
I1
sS'kuno francke'
p771
I2
sS'elihu root'
p772
I1
sS'marguerite de valois'
p773
I1
sS'katherine stokes'
p774
I1
sS'horatio alger'
p775
I2
sS'hesba stretton'
p776
I5
sS'elizabeth stuart phelps'
p777
I2
sS'moses grandy'
p778
I1
sS't. j. ritter'
p779
I1
sS'gouverneur morris'
p780
I2
sS'ernest c. hartwell'
p781
I1
sS'katherine m. h. blackford and arthur newcomb'
p782
I2
sS'gordon casserly'
p783
I4
sS'george wenner'
p784
I1
sS'warren hilton'
p785
I4
sS'henry bibb'
p786
I1
sS'john r. musick'
p787
I2
sS'roger mcguinn'
p788
I30
sS'john blaine'
p789
I1
sS'e. lynn linton'
p790
I2
sS'evelyn baring'
p791
I3
sS'g. b. n. tower'
p792
I2
sS'virginia watson'
p793
I2
sS'james oppenheim'
p794
I2
sS'william shakespeare'
p795
I4
sS'margaret penrose'
p796
I3
sS'victor bridges'
p797
I2
sS'norman angell'
p798
I2
sS'henrik ibsen'
p799
I1
sS'john victor lacroix'
p800
I2
sS'howard r. garis'
p801
I10
sS'arthur hornblow'
p802
I2
sS'w.d. [william dool] killen'
p803
I2
sS'francis galton'
p804
I4
sS'george o. draper'
p805
I2
sS'herbert david croly'
p806
I2
sS'thomas adolphus trollope'
p807
I2
sS'andre theuriet'
p808
I1
sS'charles foster kent'
p809
I2
sS'francis galton and edgar schuster'
p810
I2
sS'edited by arthur mee and j.a. hammerton'
p811
I4
sS'g. lytton strachey'
p812
I2
sS'helen marot'
p813
I2
sS'charles perrault'
p814
I2
sS'aleister crowley'
p815
I1
sS'azel ames'
p816
I1
sS'william garden blaikie'
p817
I2
sS'thomas guthrie marquis'
p818
I1
sS'henry st. john cooper'
p819
I1
sS'james albert ukawsaw gronniosaw'
p820
I2
sS'agnes repplier'
p821
I1
sS'frederic s. isham'
p822
I2
sS'adelaide anne procter'
p823
I2
sS'alice maude kellogg'
p824
I2
sS'anon.'
p825
I1
sS'caroline e. jacobs'
p826
I2
sS'aaron hill'
p827
I2
sS'h. w. phillips'
p828
I2
sS'aesop'
p829
I2
sS'benjamin of tudela'
p830
I2
sS'anonymous'
p831
I139
sS'clement c. moore'
p832
I1
sS'countess evelyn martinengo-cesaresco'
p833
I4
sS'anthony trollope'
p834
I14
sS'william ridley'
p835
I2
sS'harry caulton reeks'
p836
I2
sS"thomas d'urfey and bossuet"
p837
I2
sS'james a. cooper'
p838
I3
sS't. everett harr\xe9'
p839
I1
sS'charles s. brooks'
p840
I1
sS'carl van doren'
p841
I2
sS'elizabeth barrett browning'
p842
I2
sS'william sanday'
p843
I2
sS'edward bulwer lytton'
p844
I2
sS'louise de la ram\xe9e, a.k.a. ouida'
p845
I1
sS'janet erskine stuart'
p846
I1
sS'c. h. thomas'
p847
I2
sS'flora annie steel'
p848
I2
sS'charles southwell'
p849
I2
sS'thomas carlyle and ralph waldo emerson'
p850
I2
sS'u.s. copyright office'
p851
I56
sS'charles e. davis'
p852
I2
sS'helen keller'
p853
I2
sS'mrs. catharine a. warfield'
p854
I2
sS'dr. john scudder'
p855
I2
sS'nizam-ud-din-ahmad, (nawab nizamat jung bahadur)'
p856
I2
sS'john r. musick,'
p857
I1
sS'knut hamsun'
p858
I2
sS'alexksandr sergeevich pushkin'
p859
I2
sS'edward l. bernays, samuel hoffenstein, walter j. kingsley, murdock pemberton'
p860
I2
sS'w. w. jacobs'
p861
I1
sS'j. arthur gibbs'
p862
I2
sS'ludovic halevy'
p863
I2
sS'mrs. oliphant'
p864
I3
sS"the consumers' league of new york"
p865
I1
sS'george arbuthnot'
p866
I3
sS'alice emerson'
p867
I6
sS'mary catherine crowley'
p868
I1
sS'frances henshaw baden'
p869
I1
sS'abbie farwell brown'
p870
I5
sS'carl lumholtz'
p871
I2
sS'john turvill adams'
p872
I4
sS'john bennett'
p873
I1
sS'wilfrid chateauclair'
p874
I1
sS'ebenezer davies'
p875
I2
sS'charlotte mary yonge'
p876
I2
sS'thomas frognall  dibdin'
p877
I2
sS'emerson hough'
p878
I11
sS"josiah allen's wife (marietta holley)"
p879
I10
sS'henry seton merriman'
p880
I4
sS'jean racine'
p881
I1
sS'richard garnett'
p882
I4
sS'arthur quiller-couch'
p883
I5
sS'david starr jordan'
p884
I1
sS'clara erskine clement'
p885
I2
sS'john morley'
p886
I12
sS'wolfgang amadeus mozart'
p887
I1
sS't. everett harre'
p888
I1
sS'thomas frognall dibdin'
p889
I2
sS'michael d. cooper'
p890
I1
sS'william salisbury'
p891
I2
sS'upton sinclair'
p892
I2
sS'cardinal de retz'
p893
I1
sS'amelia e. barr'
p894
I2
sS'joris-karl huysmans'
p895
I3
sS'd.h. montgomery'
p896
I1
sS'joseph morris'
p897
I2
sS'edward bulwer-lytton'
p898
I26
sS'rev. john gerardus fagg'
p899
I1
sS'ralph van deman magoffin'
p900
I2
sS'norman springer'
p901
I1
sS'cornelius tacitus'
p902
I3
sS'shelley'
p903
I2
sS'james hartness'
p904
I1
sS'tom\xe1s de comyn'
p905
I1
sS't.f. tout'
p906
I2
sS'phillips brooks'
p907
I1
sS'saki'
p908
I2
sS'e. nesbit'
p909
I2
sS'mary finley leonard'
p910
I2
sS'elva s. smith'
p911
I2
sS'jonathan prince (jr.) cilley'
p912
I1
sS'stephen coleridge'
p913
I2
sS'samuel butler'
p914
I9
sS'henry jones'
p915
I2
sS'frederick young'
p916
I2
sS'clifford whittingham beers'
p917
I2
sS'm.e. francis (mrs. francis blundell)'
p918
I2
sS'hulbert footner'
p919
I2
sS'robert huish'
p920
I2
sS'walter w. greg'
p921
I3
sS'tomas henry huxley'
p922
I2
sS'henry ebenezer handerson'
p923
I2
sS'sarah french'
p924
I2
sS'ethel may dell'
p925
I8
sS'alexander ostrovsky'
p926
I2
sS'garrick mallery'
p927
I3
sS'james t. mccleary'
p928
I2
sS'jean francois paul de gondi, cardinal de retz'
p929
I5
sS't. f. thiselton-dyer'
p930
I2
sS'w.d. sweeting'
p931
I2
sS'henry warren'
p932
I2
sS'j. s. lefanu'
p933
I2
sS'gerald breckenridge'
p934
I1
sS'alfred j[ohn] church'
p935
I2
sS'bankim chandra chatterjee'
p936
I2
sS'an elector'
p937
I2
sS'james h. moon'
p938
I2
sS'yoritomo-tashi'
p939
I2
sS'josiah blake tidwell'
p940
I2
sS'edmund venables'
p941
I1
sS'john lord'
p942
I28
sS'william cobbett'
p943
I2
sS'norman gale'
p944
I2
sS'nephi  anderson'
p945
I1
sS'h. goudemetz'
p946
I2
sS'w.e. aytoun'
p947
I2
sS'r. j. broadbent'
p948
I2
sS'edward a. martin'
p949
I2
sS'mrs alfred gatty'
p950
I1
sS'aaron w. leland and elihu w. baldwin'
p951
I1
sS'c. j. dennis'
p952
I2
sS'margaret burnham'
p953
I4
sS't. jenkins hains'
p954
I1
sS'fanny wheeler hart'
p955
I2
sS'frank moore'
p956
I1
sS'philip verrill mighels'
p957
I4
sS'alexandre dumas, pere'
p958
I19
sS'james d. richardson'
p959
I25
sS'george washington cable'
p960
I7
sS'maurus jokai'
p961
I1
sS'irvin s. cobb'
p962
I4
sS'jacob grimm and wilhelm grimm'
p963
I1
sS'niccol\xf2 machiavelli'
p964
I1
sS'hope, anthony'
p965
I1
sS'caroline augusta frazer'
p966
I2
sS'george willis cooke'
p967
I2
sS'pierre carlet de chamblain de marivaux'
p968
I2
sS'mary swartz rose'
p969
I2
sS'james anthony froude'
p970
I2
sS'edric  vredenburg'
p971
I2
sS'benjamin la trobe'
p972
I2
sS'de witt c. peters'
p973
I2
sS'thomas de quincey'
p974
I5
sS'john ward'
p975
I2
sS's.l. bensusan'
p976
I2
sS'robert barr'
p977
I6
sS'maharanee sunity devee'
p978
I2
sS'anton chekhov'
p979
I20
sS't. f. thiselton dyer'
p980
I2
sS'john w. bookwalter'
p981
I2
sS'opie read'
p982
I2
sS'eva march tappan'
p983
I2
sS'eugene gardner'
p984
I1
sS'benjamin lumley (aka hermes)'
p985
I2
sS'fr\xe9d\xe9rick bastiat'
p986
I1
sS'michael f. j. mcdonnell'
p987
I2
sS'b.  w. randolph'
p988
I2
sS'george milligan, j. g. greenhough, alfred rowland, walter f.'
p989
I1
sS'peter nielsen'
p990
I2
sS'samuel griswold goodrich'
p991
I2
sS'johan m. snoek'
p992
I1
sS'william c. bullitt'
p993
I2
sS'alexandre (fils) dumas'
p994
I2
sS'kathleen norris'
p995
I1
sS'christopher merrett'
p996
I2
sS'q'
p997
I2
sS'john morley (aka viscount morley)'
p998
I1
sS'william j. locke'
p999
I6
sS'j. f. foster'
p1000
I2
sS'laura dent crane'
p1001
I2
sS'benj. n. martin'
p1002
I2
sS'samuel rid'
p1003
I1
sS'benjamin wood'
p1004
I2
sS'john george bourinot'
p1005
I2
sS'elizabeth mccracken'
p1006
I2
sS'john bagnell bury'
p1007
I2
sS'thomas webster'
p1008
I1
sS'edward a. johnson'
p1009
I2
sS'alexander lange kielland'
p1010
I4
sS'mary d. brine'
p1011
I1
sS'beatrice clay'
p1012
I2
sS"t. p. o'connor"
p1013
I2
sS'john mather austin'
p1014
I1
sS'george turner'
p1015
I3
sS'w. e. sellers'
p1016
I2
sS'three initiates'
p1017
I1
sS'mrs. isabella beeton'
p1018
I2
sS'emily dickinson'
p1019
I4
sS'eliza fowler haywood'
p1020
I3
sS'ulrich bonnell phillips'
p1021
I2
sS'jenny wren'
p1022
I2
sS'william t. hornaday'
p1023
I1
sS'john dryden'
p1024
I15
sS'prosper paleologus constantine'
p1025
I1
sS'ethlyn t. clough'
p1026
I2
sS'barney stone'
p1027
I2
sS'g. le notre'
p1028
I2
sS'edwin m. bacon'
p1029
I2
sS'robert marett'
p1030
I1
sS'compiled by frank sidgwick'
p1031
I2
sS'richard middleton'
p1032
I2
sS'james marchant'
p1033
I4
sS'samuel smiles'
p1034
I4
sS'mme. la marquise de fontenoy'
p1035
I2
sS'a. marie miles'
p1036
I1
sS'katharine symonds furse'
p1037
I2
sS'henry irving'
p1038
I2
sS'john addington symonds'
p1039
I12
sS'grant allen'
p1040
I9
sS'j. g. holland'
p1041
I3
sS'harvey riley'
p1042
I2
sS'joe tilden'
p1043
I2
sS'james cook'
p1044
I5
sS'f. clifford smith'
p1045
I2
sS'norman bentwich'
p1046
I2
sS'g. b. warren'
p1047
I1
sS'william wells brown'
p1048
I3
sS'w.e.b. du bois'
p1049
I2
sS'bertrand russell'
p1050
I4
sS'gordon home'
p1051
I19
sS's.m. fuller'
p1052
I2
sS'john cairns'
p1053
I2
sS'roy chapman andrews and yvette borup andrews'
p1054
I2
sS'anne reeve aldrich'
p1055
I2
sS't. s. arthur and f. c. woodworth'
p1056
I2
sS'victor hugo'
p1057
I6
sS'henry francis keenan'
p1058
I2
sS'gordon sellar'
p1059
I1
sS'frederic jesup stimson'
p1060
I2
sS'm. r. james'
p1061
I1
sS'william pember reeves'
p1062
I2
sS'honor\xe9 willsie'
p1063
I1
sS'samuel sidney'
p1064
I1
sS'mary jane holmes'
p1065
I10
sS'allan hoben'
p1066
I1
sS'b. a. hathaway'
p1067
I2
sS'joan conquest'
p1068
I6
sS't. r. glover'
p1069
I2
sS'arthur morrison'
p1070
I2
sS'hetty browne, sarah withers, w.k. tate'
p1071
I1
sS'thomas charles bridges'
p1072
I2
sS'l. t. meade'
p1073
I4
sS'george t. ferris'
p1074
I10
sS'henry j. horn'
p1075
I2
sS'r. r. lutz'
p1076
I2
sS'jeanie gould lincoln'
p1077
I2
sS'gertrude bone'
p1078
I2
sS'robert hooke'
p1079
I2
sS'louisa c. tuthill'
p1080
I1
sS'john n. luff'
p1081
I2
sS'thomas moore'
p1082
I8
sS'honor\xe9 de balzac and alexander amphiteatrof'
p1083
I1
sS'georges ohnet'
p1084
I1
sS'mary hastings bradley'
p1085
I4
sS'james endell tyler'
p1086
I2
sS'dubose heyward and hervey allen'
p1087
I2
sS'mrs. o.f. walton'
p1088
I1
sS'camille saint-sa\xebns'
p1089
I1
sS'michael faraday'
p1090
I4
sS'lawrence perry'
p1091
I2
sS'(lord byron) george gordon byron'
p1092
I3
sS'archbishop wake'
p1093
I1
sS'matthew hopkins'
p1094
I1
sS'robert neilson stephens'
p1095
I2
sS'ettie a. rout'
p1096
I2
sS'mark twain (samuel clemens)'
p1097
I127
sS'elizabeth elstob'
p1098
I2
sS'burt l. standish (aka gilbert patten)'
p1099
I1
sS'roswell martin field and eugene field'
p1100
I2
sS'booth tarkington'
p1101
I4
sS'marshall mather'
p1102
I2
sS'james avis bartley'
p1103
I2
sS'j.h. kellogg'
p1104
I2
sS'martin farquhar tupper'
p1105
I6
sS'marion craig wentworth'
p1106
I1
sS'george john romanes'
p1107
I2
sS'montague massey'
p1108
I2
sS'arthur symons'
p1109
I2
sS'charles pye'
p1110
I2
sS'reuben p. halleck'
p1111
I2
sS'grace e. king'
p1112
I2
sS'kate greenaway'
p1113
I1
sS'melvil dewey'
p1114
I2
sS'william henry irwin'
p1115
I2
sS'a. j. bueltmann'
p1116
I1
sS'thomas wentworth higginson'
p1117
I2
sS'alice b. van doren'
p1118
I1
sS'james baldwin'
p1119
I7
sS'christopher marlowe'
p1120
I3
sS'grace denio litchfield'
p1121
I2
sS'edmund deane'
p1122
I3
sS'stella benson'
p1123
I6
sS'amy catherine walton'
p1124
I2
sS'sam g. goodrich'
p1125
I1
sS'stephen field; george c. gorham'
p1126
I2
sS'c. n. williamson'
p1127
I2
sS'c. leroy baldridge'
p1128
I1
sS'archibald h. grimke'
p1129
I2
sS'thomas e. willson'
p1130
I1
sS'george fraser black'
p1131
I2
sS'laurence housman'
p1132
I2
sS'edward john eyre'
p1133
I2
sS'thomas a kempis'
p1134
I1
sS'hannah flagg gould'
p1135
I1
sS't. de witt talmage'
p1136
I4
sS'john l. huelshof'
p1137
I1
sS'a. e. w. mason'
p1138
I6
sS"frederick o'brien"
p1139
I4
sS'edmund burke'
p1140
I20
sS'an oxonian'
p1141
I2
sS'robert bridges'
p1142
I2
sS'james russell lowell'
p1143
I5
sS'john beauchamp jones'
p1144
I2
sS'edward hutton'
p1145
I5
sS'peter t. harkness'
p1146
I1
sS'lewis spence'
p1147
I2
sS'mabell s.c. smith'
p1148
I2
sS'marie conway oemler'
p1149
I7
sS'geo. h. carpenter'
p1150
I2
sS'thomas chapman'
p1151
I1
sS'john luther langworthy'
p1152
I3
sS'george w. e. russell'
p1153
I4
sS'david garnett'
p1154
I1
sS'beatrice harraden'
p1155
I2
sS'grenville kleiser'
p1156
I3
sS'a. maude royden'
p1157
I1
sS'bob evans and chris dulabone'
p1158
I2
sS'harold j. laski'
p1159
I2
sS'charles reginald haines'
p1160
I2
sS'clair w. hayes'
p1161
I9
sS'david w carnegie'
p1162
I1
sS'r. d. blackmore'
p1163
I2
sS'buckingham smith'
p1164
I1
sS'george n. morang'
p1165
I2
sS'henry david thoreau'
p1166
I1
sS'euripides'
p1167
I9
sS'henry rowe schoolcraft'
p1168
I2
sS'emerson bennett'
p1169
I2
sS'joseph hocking'
p1170
I1
sS'eugene scribe and ernest legouve'
p1171
I1
sS'compiled by edwin partridge lehman and julian park'
p1172
I1
sS'l. leslie brooke'
p1173
I3
sS'ralph waldo trine'
p1174
I1
sS'graham wallas'
p1175
I2
sS'r. derby holmes'
p1176
I2
sS'sedley lynch ware'
p1177
I2
sS'robert c. benchley'
p1178
I2
sS'frank jardine and alexander jardine'
p1179
I1
sS'lord dunsany'
p1180
I10
sS'l. march phillipps'
p1181
I2
sS'susan  glaspell'
p1182
I1
sS'forrestine c. hooker'
p1183
I2
sS'samuel strickland'
p1184
I1
sS'maria mitchell'
p1185
I2
sS'george w. peck'
p1186
I3
sS'samuel ward'
p1187
I2
sS'charles caldwell dobie'
p1188
I4
sS'francis p. obrien'
p1189
I2
sS'sarah knowles bolton'
p1190
I2
sS'walter hubbell'
p1191
I1
sS'joseph ladue'
p1192
I2
sS'chauncey jerome'
p1193
I1
sS'j. f. rutherford'
p1194
I2
sS'robert granville campbell'
p1195
I2
sS'benito perez galdos'
p1196
I1
sS'ralph s. kendall'
p1197
I2
sS'mary h. eastman'
p1198
I2
sS'frank barrett'
p1199
I2
sS'thomas henry huxley'
p1200
I6
sS'augustus earle'
p1201
I2
sS'e. p. roe'
p1202
I2
sS'william hazlitt'
p1203
I3
sS'ellis parker butler'
p1204
I1
sS'mary scharlieb and f. arthur sibly'
p1205
I2
sS'roger casement'
p1206
I2
sS'john hasloch potter'
p1207
I2
sS'john w. cousin'
p1208
I2
sS'coningsby dawson'
p1209
I5
sS'karin micha\xeblis'
p1210
I1
sS'robert w. chambers'
p1211
I14
sS'arthur thomas quiller-couch'
p1212
I13
sS'george douglass sherley'
p1213
I1
sS'wilhelm alfred braun'
p1214
I2
sS'philip p. wells'
p1215
I2
sS'mary f. nixon-roulet'
p1216
I1
sS'mrs. l. t. meade'
p1217
I2
sS'w. b. yeats'
p1218
I1
sS'james kendall hosmer'
p1219
I2
sS'gale and polden, limited'
p1220
I1
sS'm. t. w.'
p1221
I2
sS'douglas w. johnson'
p1222
I2
sS'atticus'
p1223
I1
sS'beaumont and fletcher'
p1224
I2
sS'gabriel franchere'
p1225
I2
sS'deristhe l. hoyt'
p1226
I2
sS'william stearns davis'
p1227
I2
sS'joseph xavier saintine'
p1228
I2
sS'h. g. wells'
p1229
I15
sS'robert burns'
p1230
I1
sS'austin steward'
p1231
I1
sS'h. e. e. hayes'
p1232
I1
sS'algernon bertram freeman-mitford'
p1233
I2
sS'john f. runciman'
p1234
I10
sS'l. muhlbach'
p1235
I1
sS'bruce bairnsfather'
p1236
I2
sS'w. d. lighthall'
p1237
I3
sS'compton mackenzie'
p1238
I3
sS'charles william eliot'
p1239
I2
sS'pat beauchamp'
p1240
I2
sS'ernest scott'
p1241
I1
sS'roget'
p1242
I2
sS'george gordon noel byron'
p1243
I2
sS'charles waddell chesnutt'
p1244
I4
sS'ruth royce'
p1245
I2
sS'clayton hamilton'
p1246
I2
sS'john pierpont'
p1247
I1
sS'owen johnson'
p1248
I2
sS'jonas lie'
p1249
I6
sS'aubrey stewart & george long'
p1250
I3
sS'frederick bastiat'
p1251
I1
sS'lucy h. m. soulsby'
p1252
I2
sS'william jefferson clinton'
p1253
I1
sS'henry p. talbot'
p1254
I2
sS'thomas w. hanshew'
p1255
I2
sS'c. helene barker'
p1256
I2
sS'maud lindsay'
p1257
I2
sS'arthur sherburne hardy'
p1258
I1
sS'thomas erskine holland'
p1259
I2
sS'arthur train'
p1260
I8
sS'blackwood ketcham benson'
p1261
I2
sS'charles w. eliot'
p1262
I2
sS'selma lagerloef'
p1263
I3
sS'honore de balzac and alexander amphiteatrof'
p1264
I1
sS'e. alexander powell'
p1265
I2
sS'dorin t. moisa'
p1266
I1
sS'marie belloc lowndes'
p1267
I4
sS'tobias aconite'
p1268
I2
sS'theocritus'
p1269
I2
sS'anna e. dickinson'
p1270
I2
sS'christopher darlington morley'
p1271
I2
sS'harold bindloss'
p1272
I10
sS'oscar wilde'
p1273
I5
sS'frederich schiller'
p1274
I22
sS'w. e. cormack'
p1275
I1
sS'john g. bourinot'
p1276
I2
sS'lester shepard parker'
p1277
I1
sS'rupert hughes'
p1278
I7
sS'david dickinson mann'
p1279
I1
sS'ouida'
p1280
I2
sS'ethel cook eliot'
p1281
I1
sS'richard barnum'
p1282
I2
sS'george henry tilton'
p1283
I2
sS'sir valentine chirol'
p1284
I2
sS'bill nye'
p1285
I2
sS'mary king waddington'
p1286
I3
sS'jerome k. jerome'
p1287
I2
sS'bradford torrey'
p1288
I2
sS'anne e. keeling'
p1289
I2
sS'clive bell'
p1290
I4
sS'james b. hendryx'
p1291
I4
sS'vicente blasco iba\xf1ez'
p1292
I3
sS'horatio alger, jr.'
p1293
I8
sS'richard walter'
p1294
I1
sS'o. j. stevenson'
p1295
I1
sS'peggy edmund & harold w. williams, compilers'
p1296
I2
sS'howard c. hillegas'
p1297
I2
sS'charles dudley warner'
p1298
I43
sS'nephi anderson'
p1299
I4
sS'caius julius caesar'
p1300
I1
sS'albert j. beveridge'
p1301
I2
sS'david rorie'
p1302
I1
sS'william morris'
p1303
I6
sS'charles heber clark (aka max adeler)'
p1304
I2
sS'a. t. quiller-couch'
p1305
I4
sS'ella rodman'
p1306
I2
sS'john dury'
p1307
I2
sS'mabel cook cole'
p1308
I2
sS'will levington comfort'
p1309
I2
sS'susan glaspell'
p1310
I2
sS'petroleum v. nasby'
p1311
I2
sS'nancy huston banks'
p1312
I1
sS'william bennett munro'
p1313
I2
sS'baron henri de jomini'
p1314
I2
sS'peter newell'
p1315
I2
sS'william shuler harris'
p1316
I1
sS'david walker and henry highland garnet'
p1317
I2
sS'ralph henry barbour'
p1318
I9
sS'william thomas councilman'
p1319
I2
sS'robert b. shaw'
p1320
I2
sS'frederic stewart isham'
p1321
I2
sS'dinah craik (aka: miss mulock)'
p1322
I1
sS'bram stoker'
p1323
I3
sS'walter j. clark'
p1324
I2
sS'george sylvester viereck'
p1325
I2
sS'bennet copplestone'
p1326
I2
sS'elizabeth fry page'
p1327
I2
sS'mortimer menpes'
p1328
I2
sS'theophilus cibber'
p1329
I10
sS'susan edmonstone ferrier'
p1330
I2
sS'eileen edna power'
p1331
I2
sS'marcus dorman'
p1332
I2
sS'edward sapir'
p1333
I2
sS'pedro calderon de la barca'
p1334
I1
sS'louis antoine fauvelet de bourrienne'
p1335
I1
sS'frederic dewitt wells'
p1336
I2
sS'douglas fairbanks'
p1337
I2
sS'louis dechmann'
p1338
I2
sS'noah lott'
p1339
I1
sS'sophocles'
p1340
I2
sS'francis b. pearson'
p1341
I3
sS'ed howdershelt'
p1342
I1
sS'percy greg'
p1343
I2
sS'louise forsslund'
p1344
I1
sS'favell lee mortimer'
p1345
I1
sS'theodora r. jenness'
p1346
I1
sS'johnny gruelle'
p1347
I2
sS'the author of the waldos'
p1348
I1
sS'george bird grinnell'
p1349
I5
sS'robert grant'
p1350
I2
sS'mosiah hall'
p1351
I1
sS'john lort stokes'
p1352
I1
sS'surendranath dasgupta'
p1353
I2
sS'w.d. lighthall'
p1354
I4
sS'charles hemstreet'
p1355
I2
sS'woodrow wilson'
p1356
I4
sS'fritz kreisler'
p1357
I1
sS'mrs. george croft huddleston'
p1358
I2
sS'magnay, william'
p1359
I2
sS'dallas lore sharp'
p1360
I2
sS'lucian'
p1361
I1
sS'homer heath nugent'
p1362
I1
sS'egerton r. young'
p1363
I1
sS'laura jean libbey'
p1364
I2
sS'james wycliffe headlam'
p1365
I2
sS'w. s. gilbert'
p1366
I4
sS'a. t. mahan'
p1367
I5
sS'anna bird stewart'
p1368
I2
sS'j. fenimore cooper'
p1369
I6
sS'david grayson'
p1370
I5
sS'bah\xc3\xa1\xe2\x80\x99u\xe2\x80\x99ll\xc3\xa1h'
p1371
I11
sS'elizabeth apthorp mcfadden'
p1372
I2
sS'isabella  graham'
p1373
I2
sS'henry wadsworth longfellow'
p1374
I7
sS'unknown icelanders'
p1375
I1
sS'thomas nelson page'
p1376
I2
sS'james m. beck'
p1377
I2
sS'j. meade falkner'
p1378
I2
sS'julian hawthorne'
p1379
I4
sS'marguerite bernard and edith serrell'
p1380
I2
sS'hugh latimer'
p1381
I1
sS'charles mair'
p1382
I2
sS'mark twain (samuel clemens) and charles dudley warner'
p1383
I7
sS'a.s.m. hutchinson'
p1384
I2
sS'havelock ellis'
p1385
I14
sS'j. w. dafoe'
p1386
I2
sS'samuel johnson'
p1387
I21
sS'johannes linnankoski'
p1388
I1
sS'thomas arnold'
p1389
I2
sS'thomas colley grattan'
p1390
I2
sS't. m. kettle'
p1391
I2
sS'john hamilton moore'
p1392
I2
sS'king james i.'
p1393
I2
sS'frederick engels'
p1394
I1
sS'oliver bell bunce'
p1395
I2
sS'nat turner'
p1396
I1
sS'robert hugh benson'
p1397
I13
sS'laura elizabeth howe richards'
p1398
I2
sS'j. s. fletcher'
p1399
I3
sS'mabel osgood wright'
p1400
I2
sS'maksim gorky'
p1401
I1
sS'c. c. goodwin'
p1402
I2
sS'edward r. shaw'
p1403
I1
sS'george robert stow mead'
p1404
I2
sS'gifford pinchot'
p1405
I2
sS'emile gaboriau'
p1406
I1
sS'thomas love peacock'
p1407
I1
sS'louis becke and walter jeffery'
p1408
I2
sS'albert parker fitch'
p1409
I2
sS'frances ann kemble'
p1410
I2
sS'w. e. christian'
p1411
I1
sS'e. werner'
p1412
I2
sS'rebecca west'
p1413
I2
sS'frederick h. martens'
p1414
I3
sS'eugenie foa'
p1415
I2
sS'j. (john) joly'
p1416
I2
sS'ludwig leichhardt'
p1417
I1
sS'edith ferguson black'
p1418
I2
sS'e. w. hornung'
p1419
I2
sS'ellice hopkins'
p1420
I2
sS'marie manning'
p1421
I3
sS'h. rider haggard'
p1422
I9
sS'therese martin (of lisieux)'
p1423
I1
sS'book by jules barbier; music by j. offenbach'
p1424
I1
sS'g. w. leibniz'
p1425
I2
sS'robert hardley'
p1426
I2
sS'gelett burgess'
p1427
I4
sS'david hume'
p1428
I2
sS'eleanor gates'
p1429
I1
sS'karl stephen herrman'
p1430
I2
sS'clarence stratton'
p1431
I2
sS'elizabeth gray potter and mabel thayer gray'
p1432
I2
sS'ernest giles'
p1433
I1
sS'mrs. wilson woodrow'
p1434
I2
sS'madame campan'
p1435
I8
sS'a. p. mukerji'
p1436
I1
sS'ian hay'
p1437
I3
sS'mary eastman'
p1438
I2
sS'l m\xfchlbach'
p1439
I1
sS'joshua reynolds'
p1440
I1
sS'william f. cody'
p1441
I2
sS'ruth mcenery stuart'
p1442
I1
sS'apsley cherry-garrard'
p1443
I2
sS'john esten cooke'
p1444
I4
sS'edward dowden'
p1445
I2
sS'lucien poincare'
p1446
I2
sS'francis jammes'
p1447
I2
sS'cassius dio'
p1448
I10
sS'john s. vaughan'
p1449
I2
sS'e. t. c. werner'
p1450
I2
sS'lady wallace'
p1451
I4
sS'p. gerald sanford'
p1452
I2
sS'w.w. jacobs'
p1453
I98
sS'william allen white'
p1454
I1
sS'james h. maggard'
p1455
I1
sS'oliver optic'
p1456
I8
sS'clara m. beede'
p1457
I4
sS'c.w. leadbeater'
p1458
I2
sS'prentiss ingraham'
p1459
I1
sS'francis thompson'
p1460
I1
sS'richard wagner'
p1461
I2
sS'lewis goldsmith'
p1462
I9
sS'alice henry'
p1463
I2
sS'g. harvey ralphson'
p1464
I2
sS'edward law (lord ellenborough)'
p1465
I2
sS'andr\xe9 laurie and jules verne'
p1466
I1
sS'bradford m. day, editor'
p1467
I1
sS'anna katharine green'
p1468
I1
sS'clare howard'
p1469
I2
sS'edward robins'
p1470
I2
sS'enos herbert glynne roberts'
p1471
I2
sS'don c. seitz'
p1472
I1
sS'jane andrews'
p1473
I1
sS'anne beale'
p1474
I2
sS'joseph corry'
p1475
I2
sS'l. emmett holt'
p1476
I2
sS'bliss perry'
p1477
I1
sS'john paris'
p1478
I2
sS'rufus merrill'
p1479
I1
sS'j lort stokes'
p1480
I1
sS'finley peter dunne'
p1481
I1
sS'william cullen bryant'
p1482
I5
sS'james t. fields'
p1483
I2
sS's. d. (samuel dickey) gordon'
p1484
I2
sS'kate douglas wiggin'
p1485
I4
sS'ambrose bierce'
p1486
I16
sS'goethe'
p1487
I2
sS'count ag\xe9nor de gasparin'
p1488
I1
sS'm. inostranzev'
p1489
I2
sS'benjamin kohlmeister and george kmoch'
p1490
I2
sS'lewis sperry chafer'
p1491
I1
sS'f. w. reitz'
p1492
I2
sS'joseph altsheler'
p1493
I2
sS't. woodhouse and p. kilgour'
p1494
I2
sS'frank jewett mather'
p1495
I2
sS'alexander maclaren'
p1496
I4
sS'edwin waugh'
p1497
I2
sS'sir james george frazer'
p1498
I2
sS'florence l. barclay'
p1499
I4
sS'w.t. (william thomas) vincent'
p1500
I2
sS'thomas hardy'
p1501
I11
sS'mrs. s. c.  hall'
p1502
I2
sS'burt l. standish'
p1503
I2
sS'maurice leblanc'
p1504
I2
sS'john oxenham'
p1505
I6
sS'annie allnut brassey'
p1506
I2
sS'eliza lee follen'
p1507
I1
sS'hugh macmillan'
p1508
I2
sS'william benham'
p1509
I2
sS'jean l\xe9vesque de burigny'
p1510
I1
sS'w. blanchard jerrold'
p1511
I2
sS'j.w. robertson scott'
p1512
I3
sS'harriette brower'
p1513
I6
sS'john muir'
p1514
I5
sS'charles nordhoff'
p1515
I2
sS'alfred sutro'
p1516
I2
sS'collected and arranged by francis j. reynolds'
p1517
I2
sS'duke of saint-simon'
p1518
I1
sS'john maynard keynes'
p1519
I2
sS'frank albert fetter'
p1520
I2
sS'ferna vale'
p1521
I2
sS'dutton cook'
p1522
I2
sS'george grote'
p1523
I2
sS'william i. thomas'
p1524
I2
sS'raphael  holinshed'
p1525
I2
sS'archibald lee fletcher'
p1526
I1
sS'w. stewart wallace'
p1527
I1
sS'john locke'
p1528
I2
sS'mrs. hester lynch piozzi'
p1529
I2
sS'frederick ferdinand moore'
p1530
I2
sS'edited by julian hawthorne'
p1531
I2
sS'edward e. hale'
p1532
I3
sS'george sand'
p1533
I2
sS'james augustus henry murray'
p1534
I2
sS'josephine elizabeth butler'
p1535
I2
sS'clara ingram judson'
p1536
I1
sS'benjamin homer hall'
p1537
I2
sS'george dunderdale'
p1538
I2
sS'charles e. bennett'
p1539
I2
sS'hans christian andersen'
p1540
I2
sS'a. t. (alfred thayer) mahan'
p1541
I5
sS'charles a. lee'
p1542
I1
sS'ludovic hal\xe9vy'
p1543
I1
sS'captain ralph bonehill'
p1544
I1
sS'l. p. gratacap'
p1545
I1
sS'edwin dingle'
p1546
I2
sS'ralph chaplin'
p1547
I1
sS'kate dickinson sweetser'
p1548
I5
sS'john r. watson'
p1549
I2
sS'j. p. fitzpatrick'
p1550
I2
sS'j. emerson tennent'
p1551
I2
sS'walter raleigh'
p1552
I2
sS'james allan'
p1553
I2
sS'thomas de witt talmage'
p1554
I2
sS'hugh m. smith'
p1555
I1
sS'ellen churchill semple'
p1556
I2
sS'sigmund freud'
p1557
I4
sS'charles de bernard'
p1558
I1
sS'marie bashkirtseff'
p1559
I2
sS'robert boyle'
p1560
I2
sS'wade c. smith'
p1561
I1
sS'clara morris'
p1562
I2
sS'emilia elliott'
p1563
I2
sS'e. gordon browne'
p1564
I1
sS'raphael holinshed'
p1565
I26
sS'george forrest browne'
p1566
I2
sS'henry w. hewet'
p1567
I2
sS'editor: r. brimley johnson'
p1568
I2
sS'hubert c. corlette'
p1569
I2
sS'richard william church'
p1570
I2
sS'james brendan connolly'
p1571
I2
sS'lucy fitch perkins'
p1572
I1
sS'james, eighth earl of elgin'
p1573
I2
sS'joseph sturge'
p1574
I2
sS'thomas fowler'
p1575
I1
sS'harriot stanton blatch'
p1576
I2
sS'george bryce'
p1577
I2
sS'evelyn underhill'
p1578
I2
sS'chevalier johnstone'
p1579
I1
sS'orrie lashin and milo hastings'
p1580
I1
sS'f. j. cross'
p1581
I2
sS'james fitzmaurice-kelly'
p1582
I2
sS'henry james'
p1583
I15
sS'francis burnand'
p1584
I2
sS'john fox, jr.'
p1585
I1
sS'ethel watts mumford'
p1586
I2
sS'alfred pink'
p1587
I2
sS'alfred hopkinson'
p1588
I2
sS'sarah f. buckelew and margaret w. lewis'
p1589
I1
sS'horatio n. grant'
p1590
I1
sS'stopford a. brooke'
p1591
I2
sS'alexander aaronsohn'
p1592
I2
sS'charles norris williamson and alice muriel williamson'
p1593
I2
sS'john mackie'
p1594
I1
sS'g. w. steevens'
p1595
I2
sS'fanny trollope'
p1596
I2
sS'robert carlton brown'
p1597
I2
sS'h. h. s. pearse'
p1598
I2
sS'hamilton wright mabie'
p1599
I2
sS'arthur bartlett maurice'
p1600
I2
sS'hugo m\xfcnsterberg'
p1601
I2
sS'gaston camille charles maspero'
p1602
I2
sS'general philip henry sheridan'
p1603
I3
sS'richmal crompton'
p1604
I2
sS'albert f. blaisdell'
p1605
I2
sS'ida pfeiffer'
p1606
I2
sS'emily rose burt'
p1607
I2
sS'basil king'
p1608
I7
sS'william playfair'
p1609
I1
sS'mrs. d. a. lincoln'
p1610
I2
sS'alfred lord tennyson'
p1611
I2
sS'george p. upton'
p1612
I2
sS'george l. prentiss'
p1613
I2
sS'william macleod raine'
p1614
I16
sS'james w. c. pennington'
p1615
I2
sS'spenser wilkinson'
p1616
I4
sS'william hurrell mallock'
p1617
I4
sS'harold begbie'
p1618
I8
sS'herbert quick'
p1619
I2
sS'george william  russell'
p1620
I3
sS'charles sturt'
p1621
I2
sS'john ruskin'
p1622
I7
sS'marie adelaide belloc lowndes'
p1623
I2
sS'bayard veiller'
p1624
I2
sS'william hamilton gibson'
p1625
I2
sS'leverett s. lyon'
p1626
I1
sS'alice hale burnett'
p1627
I1
sS'boyd cable (ernest andrew ewart)'
p1628
I2
sS'john macgillivray'
p1629
I3
sS'israel zangwill'
p1630
I2
sS'fergus hume'
p1631
I2
sS'm. corvus'
p1632
I1
sS'samuel g. blythe'
p1633
I1
sS'l. muehlbach'
p1634
I1
sS'eug\xe8ne scribe and ernest legouv\xe9'
p1635
I1
sS'kenneth morris'
p1636
I1
sS'edward macdowell'
p1637
I2
sS'giles jacob'
p1638
I2
sS'northcote w. thomas'
p1639
I3
sS'henry ernest dudeney'
p1640
I2
sS'manuel eduardo  de gorostiza'
p1641
I2
sS'amerel'
p1642
I1
sS'selig perlman'
p1643
I2
sS'w.d. fellowes'
p1644
I2
sS'james c. welsh'
p1645
I2
sS'austin craig'
p1646
I2
sS'william john wills'
p1647
I1
sS'william gilmore simms'
p1648
I2
sS'arachne'
p1649
I2
sS'miss parloa'
p1650
I2
sS'anna h. dorsey'
p1651
I2
sS'miriam coles harris'
p1652
I2
sS'alfred b. richards'
p1653
I1
sS'nicholas carter'
p1654
I4
sS'benjamin brawley'
p1655
I2
sS'benjamin franklin schappelle'
p1656
I2
sS'louis j. stellman'
p1657
I2
sS'phillipe de massa'
p1658
I1
sS'mary e. wilkins freeman'
p1659
I2
sS'william hope hodgson'
p1660
I6
sS'h. m. egbert'
p1661
I2
sS'c. collodi'
p1662
I2
sS'john sutherland sinclair, earl of caithness'
p1663
I2
sS'mary wollstonecraft shelley'
p1664
I2
sS'paul leland haworth'
p1665
I2
sS'winston spencer churchill'
p1666
I2
sS'john percival'
p1667
I1
sS'charlotte m. braeme'
p1668
I6
sS'charles klein'
p1669
I2
sS'john holland rose'
p1670
I8
sS'edward eggleston'
p1671
I9
sS'charles augustus kincaid'
p1672
I2
sS'fanny forester'
p1673
I1
sS'richard bonner'
p1674
I2
sS'bjornstjerne bjornson'
p1675
I1
sS'andre laurie and jules verne'
p1676
I1
sS'carl w. ackerman'
p1677
I2
sS'(illustrated by blanche fisher wright)'
p1678
I1
sS'marietta holley'
p1679
I2
sS'william eleroy curtis'
p1680
I2
sS'john murray'
p1681
I1
sS'frank hamilton cushing'
p1682
I3
sS'harold harvey'
p1683
I2
sS'mary platt parmele'
p1684
I4
sS'r. s. surtees'
p1685
I2
sS'augusta j. evans'
p1686
I2
sS'rex beach'
p1687
I3
sS'don carlos janes'
p1688
I2
sS'john hay, et al.'
p1689
I2
sS'anthony hope'
p1690
I6
sS'luella agnes owen'
p1691
I2
sS'peter b. kyne'
p1692
I6
sS'philip h. goepp'
p1693
I2
sS'f. hopkinson smith'
p1694
I2
sS'levi leonard conant'
p1695
I2
sS'mary l. day arms'
p1696
I2
sS'h. clay trumbull'
p1697
I2
sS'stephen leacock'
p1698
I2
sS'joseph a. altsheler'
p1699
I21
sS'william j. ferrar'
p1700
I2
sS'lascelles abercrombie'
p1701
I4
sS'myles muredach'
p1702
I2
sS'aeschylus'
p1703
I2
sS'rudyard kipling'
p1704
I11
sS'elizabeth cleghorn gaskell'
p1705
I3
sS'thomas purney'
p1706
I2
sS'booker t. washington, et al.'
p1707
I1
sS'a lady'
p1708
I2
sS'joseph tatlow'
p1709
I1
sS'mrs. william t. savage'
p1710
I2
sS'e. ernest bilbrough'
p1711
I2
sS'thomas preskett prest'
p1712
I1
sS'james harrison wilson'
p1713
I2
sS'marion harris neil'
p1714
I2
sS'george w. bain'
p1715
I1
sS's. m. mitra and nancy bell'
p1716
I2
sS'dale carnagey (aka dale carnegie) and j. berg esenwein'
p1717
I2
sS'robert michael ballantyne'
p1718
I7
sS'mrs. f. beavan'
p1719
I2
sS'izaak walton'
p1720
I2
sS'mrs. mill'
p1721
I1
sS"monsieur l'abbat"
p1722
I1
sS'george gibbs'
p1723
I5
sS'will carleton'
p1724
I1
sS'g. w. e. russell'
p1725
I2
sS'thomas l. kinkead'
p1726
I1
sS'walter w. bryant'
p1727
I2
sS'j.h.t. mcpherson'
p1728
I2
sS'amelia simmons'
p1729
I2
sS'john earle'
p1730
I2
sS'helen fraser'
p1731
I2
sS'charles macklin'
p1732
I2
sS'william beckford'
p1733
I1
sS'james hutton'
p1734
I4
sS'adam s. bennion'
p1735
I1
sS'stuart dodgson collingwood'
p1736
I2
sS't. s. arthur'
p1737
I2
sS'henry gally'
p1738
I3
sS'alexandre dumas'
p1739
I2
sS'george haven putnam'
p1740
I2
sS'william douglas morrison'
p1741
I2
sS'george seay wheat'
p1742
I2
sS'lieut. r. h. jayne'
p1743
I1
sS'general marcus j. wright'
p1744
I2
sS'thomas chatterton'
p1745
I2
sS'william charles wentworth'
p1746
I2
sS'josephine a. jackson and helen m. salisbury'
p1747
I2
sS'uncle philip'
p1748
I1
sS'mme de stael'
p1749
I2
sS's.r. calthrop'
p1750
I2
sS'joseph planta, esq. f. r. s.'
p1751
I2
sS'alfred de musset'
p1752
I1
sS'james d. mccabe, jr.'
p1753
I2
sS'b.j. griswold'
p1754
I1
sS'e. oe. somerville and martin ross'
p1755
I2
sS'sam vaknin'
p1756
I1
sS'mrs. john van vorst and marie van vorst'
p1757
I2
sS'harold bell wright'
p1758
I5
sS'george w. cable'
p1759
I4
sS'frederic w.  woodhouse'
p1760
I2
sS'john miller'
p1761
I2
sS'amory h. bradford'
p1762
I2
sS'john hossack'
p1763
I1
sS'sutton e. griggs'
p1764
I2
sS'r.w. church'
p1765
I5
sS'admiral sir cyprian bridge'
p1766
I2
sS'robert browning and elizabeth barrett barrett'
p1767
I2
sS'albert e. mckinley, charles a. coulomb, and armand j. gerson'
p1768
I3
sS'lanoe falconer'
p1769
I2
sS'jacques futrelle'
p1770
I3
sS'romain rolland'
p1771
I2
sS'caroline french benton'
p1772
I1
sS'richard g. parker'
p1773
I2
sS'arthur wellesley, duke of wellington'
p1774
I2
sS'andy adams'
p1775
I10
sS'natalie harris hammond'
p1776
I2
sS'jane l. hoxie'
p1777
I1
sS'dutton payne'
p1778
I2
sS'w. e. gladstone et al.'
p1779
I2
sS'addison and steele'
p1780
I2
sS'frederic h. balfour'
p1781
I2
sS'albert s. cook'
p1782
I2
sS'amy d. v. chalmers'
p1783
I2
sS'john nichol'
p1784
I2
sS'emile erckmann and alexandre chatrian'
p1785
I2
sS'archibald williams'
p1786
I1
sS'j. c. mcfeeters'
p1787
I1
sS'william g. stevenson'
p1788
I2
sS'g. a. henty'
p1789
I9
sS'herbert cook'
p1790
I2
sS'jacob gould schurman'
p1791
I1
sS'ella wheeler wilcox'
p1792
I4
sS'james h. fassett'
p1793
I2
sS'w. b. maxwell'
p1794
I2
sS'james francis dwyer'
p1795
I2
sS'annie s. swan'
p1796
I3
sS'franz joseph haydn'
p1797
I1
sS'john leighton'
p1798
I2
sS"d. d. cottrell's subscription agency"
p1799
I1
sS'bruce s. wright'
p1800
I1
sS'richard lovell edgeworth'
p1801
I1
sS'laura lee hope'
p1802
I17
sS'frederick starr'
p1803
I2
sS'august strindberg'
p1804
I2
sS'ernest bramah'
p1805
I2
sS'creever & bachelor'
p1806
I2
sS'edward howard griggs'
p1807
I1
sS'james w. foley'
p1808
I1
sS'bliss carman'
p1809
I4
sS'hiram bingham'
p1810
I2
sS'henry m. robert'
p1811
I2
sS'mrs. colman'
p1812
I1
sS's. a. reilly'
p1813
I1
sS'walter besant'
p1814
I1
sS'moncure d. conway'
p1815
I2
sS'lady augusta gregory'
p1816
I1
sS'p. l. simmonds'
p1817
I2
sS'ernest favenc'
p1818
I1
sS'michel de montaigne'
p1819
I21
sS'arnold bennett'
p1820
I40
sS'arthur griffiths'
p1821
I6
sS'phillip parker king'
p1822
I2
sS'bertram lenox putnam weale'
p1823
I2
sS'eric moore ritchie'
p1824
I2
sS'daniel knower'
p1825
I2
sS'charles james lever (1806-1872)'
p1826
I5
sS'yogi ramacharaka'
p1827
I5
sS'therese albertine louise von jacob robinson'
p1828
I2
sS'hermann hagedorn'
p1829
I2
sS'thomas paine'
p1830
I2
sS'jean levesque de burigny'
p1831
I1
sS'edward bellamy'
p1832
I3
sS'madge morris'
p1833
I1
sS'herman melville'
p1834
I12
sS'william sleeman'
p1835
I4
sS'william carey'
p1836
I1
sS'marcus tullius cicero'
p1837
I8
sS'edward moore'
p1838
I3
sS'antoinette abernethy lamoreaux'
p1839
I1
sS'w. a. fraser'
p1840
I2
sS'samuel rutherford crockett'
p1841
I2
sS'elbert hubbard'
p1842
I11
sS'francis william newman'
p1843
I2
sS'temple bailey'
p1844
I2
sS'jane h. newell'
p1845
I2
sS'alfred biese'
p1846
I2
sS'samuel philips'
p1847
I1
sS'margaret e. sangster'
p1848
I2
sS'frederick sleigh roberts'
p1849
I2
sS'hannah more'
p1850
I2
sS'francis parkman'
p1851
I2
sS'florence warden'
p1852
I2
sS'ruth russell'
p1853
I2
sS'dietlof van warmelo'
p1854
I2
sS'annie hamilton donnell'
p1855
I1
sS'marie e. zakrzewska'
p1856
I2
sS'norman macleod'
p1857
I2
sS'thomas stevens'
p1858
I1
sS'stewart edward white'
p1859
I11
sS'm. joseph bedier'
p1860
I1
sS'arabella w. stuart'
p1861
I2
sS'george mitchel'
p1862
I1
sS'percy keese fitzhugh'
p1863
I3
sS'gordon stables'
p1864
I1
sS'a.h. laidlaw'
p1865
I2
sS'edith j. morley'
p1866
I2
sS'florence kreisler greenbaum'
p1867
I2
sS'alfred ainger'
p1868
I2
sS'henry harris jessup'
p1869
I2
sS'h.a. guerber'
p1870
I2
sS'edward c. taylor'
p1871
I2
sS'richard rush'
p1872
I1
sS'charlotte b. herr'
p1873
I1
sS'stratton d. brooks'
p1874
I2
sS'lily dougall'
p1875
I4
sS'thomas hood'
p1876
I2
sS'harriet parr'
p1877
I2
sS'thomas r. allinson'
p1878
I2
sS'alice muriel williamson and charles norris williamson'
p1879
I4
sS'm. e. braddon'
p1880
I4
sS'edited by professor arber and thomas seccombe'
p1881
I2
sS'john williams streeter'
p1882
I2
sS'a. marsh'
p1883
I2
sS'james elphinston'
p1884
I2
sS'layamon'
p1885
I2
sS'louis a. flemming'
p1886
I3
sS'f. w. mott'
p1887
I2
sS'wm. crosby and h.p. nichols'
p1888
I1
sS'skookum chuck (pseud for r.d. cumming)'
p1889
I2
sS'horace holley'
p1890
I2
sS'the reformed presbytery'
p1891
I3
sS'robert cortes holliday'
p1892
I1
sS'bulstrode whitelocke'
p1893
I2
sS'george alexander fischer'
p1894
I2
sS'c. c. royce'
p1895
I1
sS'charlotte m. braeme (bertha m. clay)'
p1896
I2
sS'jacob a. riis'
p1897
I2
sS'oliver goldsmith'
p1898
I4
sS'amy brooks'
p1899
I4
sS'george a. birmingham'
p1900
I2
sS'work projects administration'
p1901
I18
sS'by robert barr'
p1902
I2
sS'harriet a. cheever'
p1903
I2
sS'c. l. graves and e. v. lucas'
p1904
I2
sS'h. lee m. pike'
p1905
I2
sS'belle m. wagner'
p1906
I1
sS'richard burton'
p1907
I1
sS'elizabeth wooster stuart phelps'
p1908
I1
sS'george weston'
p1909
I2
sS'fritz august voigt'
p1910
I2
sS'e. pauline johnson'
p1911
I4
sS'w. g. collingwood'
p1912
I2
sS'william francis barnard'
p1913
I1
sS'f.a. mckenzie'
p1914
I2
sS'margaret o. (wilson) oliphant'
p1915
I5
sS'henry white warren'
p1916
I2
sS'esther birdsall darling'
p1917
I2
sS'clara kern bayliss, berton l. maxfield, w. h. millington,'
p1918
I2
sS'w.a.p. martin'
p1919
I2
sS'mary louisa s. molesworth'
p1920
I2
sS'hugh mchugh'
p1921
I3
sS'james alexander kilpatrick'
p1922
I2
sS'max brand'
p1923
I13
sS'nathaniel bloomfield'
p1924
I1
sS'thomas carlyle'
p1925
I3
sS"bah\xe1'u'll\xe1h"
p1926
I11
sS'john lang and jean lang'
p1927
I2
sS'francois coppee'
p1928
I1
sS'caleb cushing'
p1929
I1
sS'zora neale hurston'
p1930
I1
sS'viscount milner'
p1931
I2
sS'thomas troward'
p1932
I6
sS'thomas w. lawson'
p1933
I2
sS'arthur m. mann'
p1934
I2
sS'anonymous, given as "w. m."'
p1935
I1
sS'leo tolstoy'
p1936
I2
sS'elizabeth gaskell'
p1937
I6
sS'estelle m. hurll'
p1938
I7
sS'matilda betham'
p1939
I5
sS'edmund myer'
p1940
I2
sS'annie roe carr'
p1941
I2
sS'knibbs, henry herbert'
p1942
I2
sS'caius cornelius tacitus'
p1943
I2
sS'george rawlinson'
p1944
I16
sS'eugene manlove rhodes'
p1945
I4
sS'charlton miner lewis'
p1946
I2
sS'joseph sheridan le fanu'
p1947
I8
sS'richard boyle bernard'
p1948
I2
sS'lady damaris masham'
p1949
I1
sS'albert a. michelson'
p1950
I1
sS'sara jeannette duncan'
p1951
I2
sS'brothers of the christian schools'
p1952
I2
sS'agnes e. ryan'
p1953
I1
sS'captain quincy allen'
p1954
I4
sS'wayne whipple and s. f. aaron'
p1955
I2
sS'ledyard bill'
p1956
I2
sS'james knowles'
p1957
I2
sS'ferdinand brock tupper'
p1958
I2
sS'captain r. f. scott'
p1959
I2
sS'mrs. w. j. hays'
p1960
I2
sS'mrs. j. r. green'
p1961
I2
sS'edward bannerman ramsay'
p1962
I2
sS'william haslam'
p1963
I1
sS'ernest thompson seton'
p1964
I3
sS'swami panchadasi'
p1965
I1
sS'heinrich hoffman'
p1966
I1
sS'donald hankey'
p1967
I2
sS'helen ekin starrett'
p1968
I1
sS'charles dack'
p1969
I2
sS'charles e. bolton'
p1970
I2
sS'compiled by logan marshall'
p1971
I2
sS'o. douglas'
p1972
I2
sS'inazo nitobe'
p1973
I1
sS'michael angelo buonarroti & tommaso campanella'
p1974
I2
sS'madame du hausset, an "unknown english girl" and the princess lamballe'
p1975
I1
sS"george o'brien"
p1976
I2
sS'william beatty'
p1977
I2
sS'edward a. rand'
p1978
I2
sS'charles morris'
p1979
I4
sS'herbert strang and richard stead'
p1980
I2
sS'johanna spyri'
p1981
I10
sS'thomas wallace knox'
p1982
I2
sS'amelia edith huddleston barr'
p1983
I8
sS'mrs. eugenia dunlap potts'
p1984
I1
sS'daniel defoe'
p1985
I19
sS'robert knox'
p1986
I2
sS'isaac  disraeli'
p1987
I3
sS'emile joseph dillon'
p1988
I2
sS'b.f.  cresson, jr'
p1989
I2
sS'harriet elizabeth (beecher) stowe'
p1990
I2
sS'douglass sherley'
p1991
I2
sS"seumas o'kelly"
p1992
I2
sS'g. f. r. henderson'
p1993
I2
sS'stephen gwynn'
p1994
I2
sS'thomas bingley'
p1995
I1
sS'james lowell'
p1996
I2
sS'alpheus h. snow'
p1997
I1
sS'j. j. bell'
p1998
I1
sS'john hunter'
p1999
I2
sS'ivan sergeevich turgenev'
p2000
I2
sS'wm. murray graydon'
p2001
I2
sS'francis kruckvich'
p2002
I1
sS'anna catherine emmerich'
p2003
I1
sS'marjorie douie'
p2004
I2
sS'edward washburn hopkins'
p2005
I2
sS'emanuel swedenborg'
p2006
I7
sS'f. h. cheley'
p2007
I1
sS'charles lathrop pack'
p2008
I2
sS'mrs. humphry ward'
p2009
I34
sS'harriet jacobs (aka linda brent)'
p2010
I1
sS'apolinario mabini'
p2011
I1
sS'john gay'
p2012
I2
sS'frank w. hutchins and cortelle hutchins'
p2013
I1
sS'theodore thinker'
p2014
I1
sS'theodore parker'
p2015
I1
sS'goold brown'
p2016
I2
sS'james stephens'
p2017
I2
sS'benziger brothers'
p2018
I2
sS'lewis e. theiss'
p2019
I2
sS'william loftus hare'
p2020
I2
sS'ephraim douglass adams'
p2021
I2
sS'h. n. hudson'
p2022
I2
sS'kirk munroe'
p2023
I4
sS'charles warren stoddard'
p2024
I2
sS'george allan england'
p2025
I4
sS'karle wilson baker'
p2026
I1
sS'allan fea'
p2027
I2
sS'j. krishnamurti'
p2028
I1
sS'samuel richardson'
p2029
I15
sS'inazo nitob\xe9'
p2030
I1
sS'grace s. richmond'
p2031
I11
sS'bayard taylor'
p2032
I2
sS'g.w. wade and j.h. wade'
p2033
I2
sS'william curtis'
p2034
I2
sS'j. e. heeres'
p2035
I2
sS'madame du hausset, and of an unknown english girl and the princess lamballe'
p2036
I7
sS'edward everett'
p2037
I2
sS'eleanor frances poynter'
p2038
I2
sS'w. a. clouston'
p2039
I4
sS'shepherd knapp'
p2040
I3
sS'elizabeth robins (c. e. raimond)'
p2041
I2
sS'david livingstone'
p2042
I6
sS'mrs humphry ward'
p2043
I2
sS'mary baker eddy'
p2044
I8
sS'various'
p2045
I1967
sS'frederick upham adams'
p2046
I2
sS'j.d. hills'
p2047
I2
sS'charles major'
p2048
I6
sS'st. george rathborne'
p2049
I1
sS'compiled by grenville kleiser'
p2050
I1
sS'edgar lee masters'
p2051
I2
sS'r. cadwallader smith'
p2052
I2
sS'goldwin smith'
p2053
I1
sS'punch'
p2054
I2
sS'members of the oxford faculty of modern history'
p2055
I2
sS'lafcadio hearn'
p2056
I6
sS'john benwell'
p2057
I2
sS'albert venn dicey'
p2058
I2
sS'virna sheard'
p2059
I1
sS'theodor mommsen'
p2060
I6
sS'andrew w. young'
p2061
I3
sS'bernard christian steiner'
p2062
I2
sS'j. sheridan lefanu'
p2063
I2
sS'charles sylvester'
p2064
I2
sS'judith cohen montefiore'
p2065
I2
sS'alphonse de lamartine'
p2066
I2
sS'oliver wendell holmes (sr.)'
p2067
I1
sS'robert baden-powell'
p2068
I2
sS'arthur scott bailey'
p2069
I5
sS'james p. smythe'
p2070
I2
sS'mrs. a. d. t. whitney'
p2071
I8
sS'william andrew johnston'
p2072
I2
sS'edward peple'
p2073
I2
sS'anna sewell'
p2074
I1
sS'apollonius rhodius'
p2075
I2
sS'edited by mrs. m. h. adams'
p2076
I1
sS'captain samuel brunt'
p2077
I2
sS'william patterson white'
p2078
I2
sS'richard falckenberg'
p2079
I3
sS'thomas mitchell'
p2080
I4
sS'george scott railton'
p2081
I3
sS'richard hakluyt'
p2082
I8
sS'kuno francke (editor-in-chief)'
p2083
I2
sS'p. r. t. gurdon'
p2084
I2
sS'john tyndall'
p2085
I2
sS'john f. hume'
p2086
I2
sS'george kennan'
p2087
I2
sS'arthur benton sanford'
p2088
I1
sS'jose rizal'
p2089
I2
sS'e.v. lucas'
p2090
I2
sS'jennie hall'
p2091
I7
sS'martha finley'
p2092
I15
sS'j. h. gardiner'
p2093
I2
sS'arthur machen'
p2094
I4
sS'walter runciman'
p2095
I8
sS'horatio nelson'
p2096
I4
sS'wolfram eberhard'
p2097
I2
sS'miles franklin'
p2098
I1
sS'richard le gallienne'
p2099
I17
sS'bertha upton'
p2100
I1
sS'wesson gage miller'
p2101
I2
sS'gipsy smith'
p2102
I3
sS'alice hegan rice'
p2103
I6
sS'lady i. a. gregory'
p2104
I6
sS'anicius manlius severinus boethius'
p2105
I2
sS'george henry lewes'
p2106
I1
sS'andrew b. smolnikar'
p2107
I2
sS'thomas betson'
p2108
I1
sS'john dowland'
p2109
I1
sS'clement moore'
p2110
I1
sS'arthur middleton'
p2111
I1
sS'isabel ecclestone mackay'
p2112
I3
sS'committee of the board of health'
p2113
I3
sS'howard staunton and "modern authorities"'
p2114
I1
sS'(mme. blanc) th. bentzon'
p2115
I1
sS'john t. slattery'
p2116
I2
sS'charles neville buck'
p2117
I2
sS'beatrix potter'
p2118
I21
sS'robert naylor and john naylor'
p2119
I2
sS'hester lynch piozzi'
p2120
I2
sS'holman day'
p2121
I3
sS'james emerson tennent'
p2122
I2
sS'william congreve'
p2123
I1
sS'arthur b. reeve and john w. grey'
p2124
I2
sS'anne louise germaine necker, baronne (baroness) de stael-holstein'
p2125
I1
sS"elliott o'donnell"
p2126
I2
sS'steven sills'
p2127
I1
sS'joseph conrad'
p2128
I4
sS'francis clement philips and augustus harris'
p2129
I2
sS'coventry patmore'
p2130
I1
sS'christiaan huygens'
p2131
I2
sS'burton j. hendrick'
p2132
I4
sS'andre norton'
p2133
I1
sS'h. w. conn'
p2134
I2
sS'john bovee dods'
p2135
I1
sS'charles dickens and william makepeace thackeray'
p2136
I1
sS'a-no. 1 (aka leon ray livingston)'
p2137
I1
sS'j. d. beresford'
p2138
I4
sS'mrs. sherwood'
p2139
I1
sS'william and robert chambers'
p2140
I1
sS'harold r. peat'
p2141
I2
sS'james dodds'
p2142
I1
sS'george frisbie whicher'
p2143
I2
sS'hartley withers'
p2144
I4
sS'r. heber newton'
p2145
I2
sS'william bligh'
p2146
I1
sS'unknown author'
p2147
I1
sS'alexander von humboldt'
p2148
I1
sS'edward dyson'
p2149
I6
sS'r. hugh knyvett'
p2150
I2
sS'giovanni boccaccio'
p2151
I3
sS'methuen & co.'
p2152
I2
sS'francois de salignac de la mothe- fenelon'
p2153
I1
sS'c. snouck hurgronje'
p2154
I2
sS'hector charles cameron'
p2155
I2
sS'erskine childers'
p2156
I4
sS'erasmus w. jones'
p2157
I2
sS'fannie a. (mrs.) beers'
p2158
I2
sS'an american lady'
p2159
I2
sS'patrick geddes'
p2160
I2
sS'lucretia p. hale'
p2161
I2
sS'guy de maupassant'
p2162
I21
sS'john mckinlay'
p2163
I1
sS'e. e. adams'
p2164
I1
sS'jacqueline m. overton'
p2165
I2
sS'juliana horatia gatty ewing'
p2166
I6
sS'harriet s. caswell'
p2167
I1
sS'kalidasa'
p2168
I2
sS'isabel hornibrook'
p2169
I2
sS'j.s. shedlock'
p2170
I2
sS'grace macgowan cooke'
p2171
I2
sS'ella m. sexton'
p2172
I2
sS'george ludington weed'
p2173
I2
sS'w. somerset maugham'
p2174
I2
sS'janet d. wheeler'
p2175
I1
sS'cecil smith'
p2176
I2
sS't.w.e. holdsworth'
p2177
I2
sS'henry jones ford'
p2178
I2
sS'herbert paul'
p2179
I1
sS'mary baker  eddy'
p2180
I1
sS'harriet vaughan cheney'
p2181
I2
sS'hattie greene lockett'
p2182
I1
sS'h. m. tomlinson'
p2183
I1
sS'frederick a. ober'
p2184
I2
sS'john d. rockefeller'
p2185
I2
sS'ernest seton-thompson'
p2186
I2
sS'harry lauder'
p2187
I1
sS'victoria cross'
p2188
I4
sS'sherwin cody'
p2189
I2
sS'john bacchus dykes'
p2190
I1
sS'john buffa'
p2191
I2
sS's. mukerji'
p2192
I2
sS'o.e. fuller'
p2193
I2
sS'mary stewart cutting'
p2194
I2
sS'robert h. elliot'
p2195
I2
sS'c. l. hunter'
p2196
I2
sS'alexander roberts'
p2197
I2
sS'arthur thomas quiller-couch (q)'
p2198
I2
sS'e.w. hornung'
p2199
I2
sS'claude fayette bragdon'
p2200
I6
sS'mrs. o. f. walton'
p2201
I1
sS'innes logan'
p2202
I2
sS'wilfred scawen blunt'
p2203
I2
sS'christina rossetti'
p2204
I2
sS'charles a. murdock'
p2205
I2
sS'harold macgrath'
p2206
I17
sS'gustave flaubert'
p2207
I4
sS'marmaduke park'
p2208
I2
sS'sheila kaye-smith'
p2209
I2
sS'stanley j. weyman'
p2210
I1
sS'aurelius clemens prudentius'
p2211
I2
sS'ellen glasgow'
p2212
I5
sS'jan gordon'
p2213
I3
sS'mir amman of dihli'
p2214
I2
sS'l. m\xfchlbach'
p2215
I2
sS'frederic william farrar'
p2216
I4
sS'frederick boyle'
p2217
I2
sS'fannie caldwell macaulay'
p2218
I2
sS'william e. doubleday'
p2219
I2
sS'john bourne'
p2220
I2
sS'kate sanborn'
p2221
I4
sS'john frederick helvetius'
p2222
I2
sS'ellen eddy shaw'
p2223
I2
sS'eugene sue'
p2224
I12
sS'francis beaumont'
p2225
I1
sS'elizabeth wheeler andrew and katharine caroline bushnell'
p2226
I2
sS'ike matthews'
p2227
I1
sS'john foster dulles and dwight d. eisenhower'
p2228
I1
sS'g. maspero'
p2229
I16
sS'joseph carey'
p2230
I2
sS'william paley'
p2231
I1
sS'friedrich froebel'
p2232
I2
sS'edward livermore'
p2233
I1
sS'sir walter besant'
p2234
I2
sS'jane l. stewart'
p2235
I2
sS'valentine chirol'
p2236
I2
sS't.s. arthur'
p2237
I2
sS'uriah smith'
p2238
I1
sS'thomas tapper'
p2239
I2
sS'leona dalrymple'
p2240
I5
sS'arnold wolfensberger'
p2241
I2
sS'edited by joseph dunn and p.j. lennox'
p2242
I2
sS"john charles o'connor and charles frederic hayes"
p2243
I3
sS'isabella beeton'
p2244
I2
sS'clara louise burnham'
p2245
I2
sS'john meade falkner'
p2246
I2
sS'willard grosvenor bleyer'
p2247
I2
sS'charles f. horne, editor'
p2248
I2
sS'victor appleton'
p2249
I2
sS'eugenia dunlap potts'
p2250
I2
sS'thornton hall'
p2251
I4
sS'evelyn everett-green'
p2252
I10
sS'j. m. farrar'
p2253
I2
sS'willa cather'
p2254
I4
sS'roy j. snell'
p2255
I2
sS'kaalidaasa'
p2256
I1
sS'eleanor h. porter'
p2257
I1
sS'george moore'
p2258
I18
sS'clifton bingham'
p2259
I1
sS'john buchan'
p2260
I3
sS'john alexander logan'
p2261
I8
sS'john franklin bobbitt'
p2262
I1
sS'william marsden'
p2263
I2
sS'sarah a. myers'
p2264
I2
sS'f. tennyson jesse'
p2265
I2
sS'abel j. jones'
p2266
I2
sS'j.a. james'
p2267
I2
sS'william hutton'
p2268
I2
sS'thomas baker'
p2269
I2
sS'gerald stanley lee'
p2270
I2
sS'caxton'
p2271
I2
sS'madison cawein'
p2272
I2
sS'emily post'
p2273
I2
sS'editor: a.h. bullen'
p2274
I2
sS'james boswell'
p2275
I2
sS'frances cavanah'
p2276
I2
sS'joseph hergesheimer'
p2277
I2
sS'brandon head'
p2278
I2
sS'louise-clarke pyrnelle'
p2279
I1
sS'john galsworthy'
p2280
I30
sS'e. arnold bennett'
p2281
I10
sS'william o. stoddard'
p2282
I1
sS'enrico ferri'
p2283
I2
sS'cecil henry bompas'
p2284
I2
sS'john patrick crichton stuart bute'
p2285
I2
sS'fannie c. macaulay'
p2286
I1
sS'william s. hart'
p2287
I2
sS'selma lagerlof'
p2288
I4
sS'a. g. hales'
p2289
I2
sS'g. h. gerberding'
p2290
I2
sS't.s. stribling'
p2291
I2
sS'erasmus'
p2292
I2
sS'donald lemen clark'
p2293
I1
sS'wilfrid ch\xe2teauclair'
p2294
I1
sS'a. b. paterson'
p2295
I1
sS'samuel woodworth cozzens'
p2296
I2
sS'louisa m. alcott'
p2297
I2
sS'ida m. tarbell'
p2298
I2
sS'e.r. murray and henrietta brown smith'
p2299
I2
sS'w. h. r.  curtler'
p2300
I2
sS'hubert d. henderson'
p2301
I2
sS'peter e. williams'
p2302
I1
sS'john a. morrison'
p2303
I1
sS'julie m. lippmann'
p2304
I4
sS'william winstanley'
p2305
I2
sS'alexis de tocqueville'
p2306
I2
sS'william westall'
p2307
I2
sS'amy lefeuvre'
p2308
I1
sS'w. h. h. murray'
p2309
I1
sS'inazo nitob\xc3\xa9'
p2310
I1
sS'william allingham'
p2311
I2
sS'sherwood anderson'
p2312
I1
sS'george a. lawrence'
p2313
I2
sS'james boswell, andrew erskine and george dempster'
p2314
I2
sS'john gilbert cooper, john armstrong, ralph cohen'
p2315
I1
sS'james napier'
p2316
I2
sS'percy fitzgerald'
p2317
I2
sS'translated by p. w. jacob'
p2318
I2
sS"baha'u'llah"
p2319
I11
sS'thomas winthrop hall'
p2320
I2
sS'william landsborough'
p2321
I1
sS'ralph centennius'
p2322
I1
sS'anna may wilson'
p2323
I2
sS'robert leighton'
p2324
I3
sS's.m. hussey'
p2325
I2
sS'j. g. h. barry'
p2326
I2
sS'james gray'
p2327
I2
sS'l. frank baum'
p2328
I1
sS'max muller'
p2329
I1
sS'l. w. rogers'
p2330
I1
sS'constant'
p2331
I1
sS't. ramakrishna'
p2332
I2
sS'jennie lansley wilson'
p2333
I2
sS'epiphanius wilson'
p2334
I3
sS'emma helen blair'
p2335
I12
sS'mrs. j. s. adams'
p2336
I1
sS'hugh walpole'
p2337
I3
sS'saemund sigfusson and snorre sturleson'
p2338
I2
sS'richard von garbe'
p2339
I2
sS'ed. by blair and robertson'
p2340
I2
sS'voltaire'
p2341
I1
sS'emma c. dowd'
p2342
I2
sS'charles j. barnes and j. marshall hawkes'
p2343
I2
sS'alfred perceval graves'
p2344
I2
sS'walter scott'
p2345
I7
sS'samuel hopkins adams'
p2346
I6
sS'george saintsbury'
p2347
I6
sS'william ralph inge'
p2348
I4
sS'karl marx and friedrich engels'
p2349
I1
sS'william dampier'
p2350
I2
sS'w. h. mcguffey'
p2351
I1
sS'tobias smollett'
p2352
I2
sS'algernon blackwood'
p2353
I15
sS'nehemiah adams'
p2354
I3
sS'i. a. r. wylie'
p2355
I1
sS'selected by frederic knowles'
p2356
I2
sS'grace & philip wharton'
p2357
I2
sS'john lothrop motley'
p2358
I14
sS'camille saint-saens'
p2359
I1
sS'alexander clark bullitt'
p2360
I2
sS'julian s. corbett'
p2361
I2
sS'john evelyn'
p2362
I2
sS'cory doctorow'
p2363
I8
sS'g. p. cuttriss'
p2364
I2
sS'richard a. proctor'
p2365
I2
sS'a.m. sullivan'
p2366
I2
sS'henry theophilus finck'
p2367
I2
sS'percy marks'
p2368
I2
sS'w. harrison ainsworth'
p2369
I4
sS'mrs. belloc lowndes'
p2370
I2
sS'benjamin harrison'
p2371
I2
sS'l.w. king and h.r. hall'
p2372
I2
sS'etta austin blaisdell and mary frances blaisdell'
p2373
I1
sS'warren t. ashton'
p2374
I2
sS'henry w. longfellow'
p2375
I1
sS'pratt food co.'
p2376
I1
sS'a. a. milne'
p2377
I4
sS'francois arago'
p2378
I2
sS'nikolai velimirovic'
p2379
I3
sS'l muehlbach'
p2380
I1
sS'ruth putnam'
p2381
I2
sS'fannie hurst'
p2382
I4
sS'joseph noad'
p2383
I2
sS'meriwether lewis and william clark'
p2384
I2
sS'james freeman clarke'
p2385
I3
sS'oliver wendell holmes, sr. (the physician and poet not the jurist)'
p2386
I2
sS'james monteith'
p2387
I1
sS'arthur e. p. b. weigall'
p2388
I2
sS'sutton and sons'
p2389
I3
sS'gertrude franklin horn atherton'
p2390
I8
sS'edited by walter scott'
p2391
I2
sS'k\xe5alid\xe5asa'
p2392
I1
sS'john hay'
p2393
I3
sS'charlotte e. chittenden'
p2394
I1
sS'venture smith'
p2395
I1
sS'w. bion adkins'
p2396
I1
sS'louis john stellman'
p2397
I2
sS'daniel webster'
p2398
I2
sS'earl wayland bowman'
p2399
I2
sS'james huneker'
p2400
I2
sS'w. g. archer'
p2401
I2
sS'anna potter wright'
p2402
I1
sS'ring w. lardner'
p2403
I1
sS'george drayton strayer and naomi norsworthy'
p2404
I2
sS'dan b. brummitt'
p2405
I1
sS'helen bannerman'
p2406
I1
sS'dudley m. campbell'
p2407
I1
sS'robert m. yerkes'
p2408
I2
sS'edison marshall'
p2409
I2
sS'anton pavlovich chekhov'
p2410
I2
sS'mrs. leighton'
p2411
I2
sS'robert keable'
p2412
I2
sS'james payn'
p2413
I4
sS'mrs. lawrence turnbull'
p2414
I2
sS'chester k. steele'
p2415
I3
sS'robert lansing'
p2416
I2
sS'grace viall gray'
p2417
I2
sS'j. l. campbell'
p2418
I2
sS"duchesse d'orleans"
p2419
I1
sS'honor\xe9 willsie morrow'
p2420
I6
sS'george lillie craik'
p2421
I2
sS"pat o'cotter"
p2422
I2
sS'somerset maugham'
p2423
I2
sS'john  ruskin'
p2424
I2
sS'h. l. stephens'
p2425
I1
sS'thomas barlow smith'
p2426
I2
sS'hezekiah butterworth'
p2427
I2
sS'james strong'
p2428
I1
sS'rolland, romain'
p2429
I2
sS'lady sarah wilson'
p2430
I2
sS'charles and mary lamb'
p2431
I6
sS'ivan turgenev'
p2432
I2
sS'maria thompson daviess'
p2433
I15
sS'titus livius'
p2434
I6
sS'carter godwin woodson'
p2435
I2
sS'henry sheahan'
p2436
I2
sS'sam r. watkins'
p2437
I1
sS'margaret slattery'
p2438
I2
sS'ellen anderson gholson glasgow'
p2439
I2
sS'david graham phillips'
p2440
I3
sS'william cowper'
p2441
I1
sS'milo m. hastings'
p2442
I1
sS'walter h. rich'
p2443
I2
sS'j. mclaren cobban'
p2444
I2
sS'charlotte m. yonge'
p2445
I8
sS'archibald lampman'
p2446
I4
sS'agnes conway'
p2447
I1
sS'james branch cabell'
p2448
I10
sS'frederick william roe (edit. and select.)'
p2449
I2
sS'francis clement kelley'
p2450
I2
sS'edward harrison barker'
p2451
I2
sS'hjalmar hjorth boyesen'
p2452
I2
sS'abraham myerson'
p2453
I2
sS'w. allison  sweeney'
p2454
I1
sS'hector france'
p2455
I2
sS'annie besant and charles w. leadbeater'
p2456
I2
sS'matthew arnold'
p2457
I4
sS'john l. ferguson'
p2458
I1
sS'herman nicholas'
p2459
I1
sS'lydia leavitt'
p2460
I3
sS'felix moscheles'
p2461
I2
sS'pedro antonio de alarcon'
p2462
I1
sS'miguel de unamuno'
p2463
I2
sS'howard payson'
p2464
I1
sS'horace annesley vachell'
p2465
I2
sS'frances hodgson burnett'
p2466
I11
sS'h. a. cody'
p2467
I8
sS'ralph adams cram'
p2468
I2
sS'mary cholmondeley'
p2469
I2
sS'marcus dods'
p2470
I1
sS'eden phillpotts'
p2471
I5
sS'sir john falstaffe'
p2472
I2
sS'isaac watts'
p2473
I3
sS'juliet bredon'
p2474
I2
sS'j. wells'
p2475
I1
sS'grant showerman'
p2476
I2
sS'oliver wendell holmes, sr.'
p2477
I22
sS'jacques casanova de seingalt'
p2478
I31
sS'j. a. macculloch'
p2479
I2
sS'edith m. thomas'
p2480
I2
sS'max aitken beaverbrook'
p2481
I2
sS'louis aubrey wood'
p2482
I1
sS'norval a. hawkins'
p2483
I2
sS'elinore pruitt stewart'
p2484
I2
sS'andrejs pumpurs'
p2485
I1
sS'robert seymour'
p2486
I6
sS'dante alighieri, translated by the rev. h. f. cary'
p2487
I1
sS'j. v. n. talmage'
p2488
I1
sS'w. h. l. watson'
p2489
I2
sS'john moncure wetterau'
p2490
I4
sS'ralph bonehill'
p2491
I2
sS'mary stuart boyd'
p2492
I2
sS'walter crane'
p2493
I3
sS'james h. snowden'
p2494
I2
sS'gertrude stein'
p2495
I4
sS'g. manville fenn'
p2496
I1
sS'frank norris'
p2497
I4
sS'charles sotheran'
p2498
I1
sS"elizabeth-charlotte, duchesse d'orleans"
p2499
I5
sS'henry w. blair, j.e. brown, j.n. dolph, g.g. vest, geo. f. hoar.'
p2500
I2
sS'henry reed stiles'
p2501
I1
sS'miguel de cervantes saavedra'
p2502
I47
sS'justin d. fulton'
p2503
I1
sS'anne manning'
p2504
I2
sS'stanford eveleth'
p2505
I2
sS'thomas taylor'
p2506
I2
sS'edward c. pickering'
p2507
I2
sS'john denvir'
p2508
I2
sS'mrs. e. e. kellogg'
p2509
I2
sS'emily lawless'
p2510
I2
sS'mary alice walton'
p2511
I1
sS'guglielmo ferrero'
p2512
I4
sS'mary hitchcock'
p2513
I2
sS'grace aguilar'
p2514
I6
sS'kristina roy'
p2515
I1
sS'gustave droz'
p2516
I1
sS'milo hastings'
p2517
I2
sS'marion harland'
p2518
I2
sS'james p. cole and oliver schoonmaker'
p2519
I2
sS'j. e. howard'
p2520
I2
sS'washington gladden'
p2521
I2
sS'thomas cochrane, earl of dundonald'
p2522
I2
sS'edric holmes'
p2523
I4
sS'william elliot griffis'
p2524
I2
sS'mary newton stanard'
p2525
I2
sS'h.g. wells'
p2526
I5
sS'oliver wendell holmes'
p2527
I2
sS'elizabeth gaskell, et al.'
p2528
I2
sS'walter w. skeat'
p2529
I2
sS'editor-in-chief: kuno francke'
p2530
I8
sS'mary roberts rinehart'
p2531
I11
sS'a c and f t gregory'
p2532
I1
sS'michael drayton, bartholomew griffin, and william smith'
p2533
I2
sS'henry a. beers'
p2534
I8
sS'henry sydnor harrison'
p2535
I4
sS'benjamin ward richardson'
p2536
I2
sS'christopher morley'
p2537
I4
sS'john rae'
p2538
I2
sS'bertha runkle'
p2539
I2
sS'thomas herbert russell'
p2540
I2
sS'kempster miller'
p2541
I2
sS'edward g. flight'
p2542
I1
sS'douglas rushkoff'
p2543
I1
sS'maurus j\xf3kai'
p2544
I1
sS'h. belloc'
p2545
I2
sS'lehmer, derrick norman'
p2546
I3
sS'hudson, w. h.'
p2547
I1
sS'sundry ministers of christ within the city of london'
p2548
I2
sS'catherine clive'
p2549
I2
sS'kossuth'
p2550
I2
sS'democritus junior'
p2551
I2
sS'don emilio aguinaldo y famy'
p2552
I2
sS'marguerite gardiner'
p2553
I2
sS'duc de saint-simon'
p2554
I16
sS'francis a. march and richard j. beamish'
p2555
I2
sS'kenneth mcgaffey'
p2556
I1
sS'bertha muzzy bower'
p2557
I2
sS'sir walter scott'
p2558
I18
sS'oscar ludvig olson'
p2559
I2
sS'george macdonald'
p2560
I13
sS'charles james lever'
p2561
I3
sS'susanna moodie'
p2562
I2
sS'lindsay, anna robertson brown'
p2563
I2
sS'charles reade'
p2564
I2
sS'theodore dreiser'
p2565
I2
sS'margaret pedler'
p2566
I4
sS'william lewis manly'
p2567
I2
sS'h.a. lorentz'
p2568
I1
sS'trans. by francis augustus macnutt'
p2569
I2
sS'h. r. naylor'
p2570
I1
sS'izola forrester'
p2571
I2
sS'princess catherine radziwill'
p2572
I2
sS'thomas longueville'
p2573
I2
sS'laura f. kready'
p2574
I2
sS'luther benson'
p2575
I1
sS'louis berman, m.d.'
p2576
I2
sS'arnold e. bennett'
p2577
I2
sS'george tobias flom'
p2578
I3
sS'robert browning'
p2579
I3
sS'earl barnes'
p2580
I2
sS'myra kelly'
p2581
I2
sS'murray leinster'
p2582
I1
sS'william still'
p2583
I2
sS'clair wallace hayes'
p2584
I2
sS'olaudah equiano'
p2585
I2
sS'murat halstead'
p2586
I1
sS'dave ranney'
p2587
I1
sS'robert smythe hichens'
p2588
I3
sS'george borrow'
p2589
I4
sS'hugo p.  thieme'
p2590
I3
sS'elizabeth latimer'
p2591
I2
sS'marguerite stockman dickson'
p2592
I2
sS'john g. neihardt'
p2593
I2
sS'leigh hunt'
p2594
I4
sS'marion foster washburne'
p2595
I1
sS'randolph caldecott'
p2596
I3
sS'rev. t. de witt talmage'
p2597
I2
sS'bernhard berenson'
p2598
I2
sS'compiled by james d. richardson'
p2599
I6
sS'william klapp williams'
p2600
I2
sS'h. c. yarrow'
p2601
I2
sS'john habberton'
p2602
I3
sS'elizabeth (jones) towne'
p2603
I1
sS'editor-in-chief: rossiter johnson'
p2604
I2
sS'joanna baillie'
p2605
I2
sS'keith henderson'
p2606
I2
sS'john biddulph'
p2607
I2
sS'hugh blair grigsby'
p2608
I2
sS'lyof n. tolstoi'
p2609
I1
sS'edited by blair and robertson'
p2610
I2
sS'burton egbert stevenson'
p2611
I4
sS'pierre corneille'
p2612
I2
sS'frances e.w. harper'
p2613
I2
sS'thaddeus mason harris'
p2614
I2
sS'joseph jacobs'
p2615
I2
sS'harry vincent wann'
p2616
I2
sS'john-stuart mill'
p2617
I2
sS'walter r. cassels'
p2618
I4
sS'charles alfred downer'
p2619
I3
sS'lizzie a. freeth'
p2620
I2
sS'popular mechanics'
p2621
I2
sS'david macdill, jonathan blanchard, and edward beecher'
p2622
I1
sS'nora perry'
p2623
I1
sS'samuel mcchord crothers'
p2624
I2
sS't. martin wood'
p2625
I2
sS'f. c. l. van steenderen'
p2626
I1
sS'p. s. allen'
p2627
I2
sS'marjorie benton cooke'
p2628
I2
sS'd. augustus dickert'
p2629
I1
sS'c. a. toledano'
p2630
I2
sS'h. l. havell'
p2631
I2
sS'meredith nicholson'
p2632
I7
sS'jacob d. green'
p2633
I1
sS'cecil j. sharp'
p2634
I2
sS'edmund o. jones'
p2635
I1
sS'helen maria williams'
p2636
I2
sS'talbot mundy'
p2637
I3
sS'o. henry'
p2638
I13
sS'john mcdouall stuart'
p2639
I1
sS'william wordsworth'
p2640
I6
sS'archibald henderson'
p2641
I1
sS'pierre benoit'
p2642
I2
sS"john m'lean"
p2643
I4
sS'edwin asa dix'
p2644
I2
sS'john roby'
p2645
I2
sS'charles amory beach'
p2646
I1
sS'edward conybeare'
p2647
I2
sS'mrs. thomas geldart'
p2648
I2
sS'washington allston'
p2649
I4
sS'hall caine'
p2650
I4
sS'frances little'
p2651
I2
sS'j.o. dorsey, a.s. gatschet, and s.r. riggs'
p2652
I3
sS'l. m. gilbreth'
p2653
I2
sS'sidney heath'
p2654
I2
sS'archibald henry sayce'
p2655
I2
sS'selma lagerl\xf6f'
p2656
I1
sS'david masson'
p2657
I2
sS'katherine cecil thurston'
p2658
I2
sS'a. leblond de brumath'
p2659
I2
sS'george grey'
p2660
I2
sS'robert valentine dolbey'
p2661
I2
sS'edward ellis'
p2662
I2
sS'alice prescott smith'
p2663
I2
sS'compiled by gwendolen h. swinburne'
p2664
I3
sS'j.s. fletcher'
p2665
I2
sS'karin michaelis'
p2666
I1
sS'edith van dyne'
p2667
I14
sS'elinor glyn'
p2668
I14
sS'guy boothby'
p2669
I2
sS'alice bradley'
p2670
I2
sS'alfred crowquill'
p2671
I1
sS'arthur winfield'
p2672
I1
sS'john morrison'
p2673
I2
sS'b.h. baden-powell'
p2674
I2
sS'louise m\xfchlbach'
p2675
I1
sS'frederick w. robertson'
p2676
I2
sS'mildred aldrich'
p2677
I3
sS'horace'
p2678
I1
sS'carolyn verhoeff'
p2679
I1
sS'carolyn wells'
p2680
I6
sS'j.m. barrie'
p2681
I2
sS's. e. wishard'
p2682
I1
sS'cleveland moffett'
p2683
I2
sS'john pinkerton'
p2684
I1
sS'andrew a. bonar'
p2685
I2
sS'jonas lauritz idemil lie'
p2686
I2
sS'j. allanson picton'
p2687
I2
sS'c. j. (clarence michael james) dennis'
p2688
I1
sS'frederick w. hamilton'
p2689
I2
sS'arthur e. bostwick'
p2690
I2
sS'captain frederick marryat'
p2691
I9
sS'alphonse daudet'
p2692
I1
sS'rose macaulay'
p2693
I6
sS'thomas bull, m.d.'
p2694
I1
sS'jules verne'
p2695
I14
sS'john l. alexander'
p2696
I1
sS'edited by george newnes'
p2697
I2
sS'douglass sherley et al.'
p2698
I2
sS'henry thayer niles'
p2699
I1
sS'may sinclair'
p2700
I17
sS'h. g. keene'
p2701
I2
sS'john wesley powell'
p2702
I6
sS'mrs. humphrey ward'
p2703
I2
sS'henri bergson'
p2704
I2
sS'p. g. wodehouse'
p2705
I6
sS'frank frost abbott'
p2706
I3
sS'maria edgeworth'
p2707
I2
sS'john webster'
p2708
I2
sS'a. e. winship'
p2709
I2
sS'henry wallace phillips'
p2710
I2
sS'frances brooke'
p2711
I2
sS'hector malot'
p2712
I1
sS'mabel quiller-couch'
p2713
I3
sS'william h. sparks'
p2714
I2
sS'charlotte bronte'
p2715
I1
sS'john lingard and hilaire belloc'
p2716
I2
sS'florence e. barrett'
p2717
I2
sS'stephen crisp'
p2718
I1
sS'john galt'
p2719
I1
sS'lucas malet'
p2720
I2
sS'octave feuillet'
p2721
I3
sS'w.f. drannan'
p2722
I1
sS'margaret e. burton'
p2723
I2
sS'george c. shedd'
p2724
I2
sS'epictetus'
p2725
I2
sS'w.j. marx'
p2726
I2
sS'rev. w. lucas collins'
p2727
I2
sS'elizabeth miller'
p2728
I4
sS'rene bazin'
p2729
I1
sS'john bach mcmaster'
p2730
I2
sS'clarence darrow'
p2731
I2
sS'george a. baker, jr.'
p2732
I2
sS'thomas clarkson'
p2733
I16
sS'dorothy canfield'
p2734
I4
sS'thomas t. harman and walter showell'
p2735
I2
sS'margaret wade campbell deland'
p2736
I2
sS'w. c. brownell'
p2737
I2
sS'frank j. webb'
p2738
I1
sS'kenyon cox'
p2739
I2
sS'arthur owens cooke'
p2740
I1
sS'alexander whyte'
p2741
I6
sS'd. thomas curtin'
p2742
I1
sS'george h. heffner'
p2743
I2
sS'w. f. butler'
p2744
I2
sS'charles michael baggs'
p2745
I2
sS'bettina von hutten'
p2746
I2
sS'homer greene'
p2747
I1
sS'ernest n. bennett'
p2748
I2
sS'mrs. j. b. webb'
p2749
I2
sS'o. p. fitzgerald'
p2750
I1
sS'john williams'
p2751
I2
sS'arthur o. norton'
p2752
I2
sS'hannah trager'
p2753
I1
sS'isaac g. briggs'
p2754
I2
sS'francis fisher browne'
p2755
I2
sS'michael barrett'
p2756
I2
sS'ernest renan'
p2757
I4
sS'r. e. n. (richard) twopeny'
p2758
I2
sS'max millard'
p2759
I1
sS'w. l. courtney'
p2760
I2
sS'giuseppe giacosa and luigi illica'
p2761
I2
sS't. g. tucker'
p2762
I2
sS'william h. thomes'
p2763
I2
sS'daniel desmond sheehan'
p2764
I2
sS'thomas w. knox'
p2765
I2
sS'cyril burleigh'
p2766
I2
sS'lulu hunt peters'
p2767
I2
sS'charles g. leland'
p2768
I1
sS'john reed scott'
p2769
I6
sS's.r. crockett'
p2770
I2
sS'sir richard blackmore'
p2771
I2
sS'h.j. chaytor'
p2772
I2
sS'gertrude franklin atherton'
p2773
I2
sS'ali nomad'
p2774
I2
sS'john f. porte'
p2775
I2
sS'david collins'
p2776
I4
sS'lydia maria child'
p2777
I1
sS'victor g. durham'
p2778
I6
sS'will lillibridge'
p2779
I2
sS't.h. (thomas henry) huxley'
p2780
I2
sS'dorothy c. paine'
p2781
I2
sS'madame du hausset an "unknown english girl" and princess lamballe'
p2782
I1
sS'a. woodward'
p2783
I2
sS'foxhall daingerfield, jr.'
p2784
I1
sS'm. jacson'
p2785
I2
sS'holland thompson'
p2786
I2
sS'conrad hjalmar nordby'
p2787
I2
sS'benito p\xe9rez gald\xf3s'
p2788
I1
sS'arthur wing pinero'
p2789
I1
sS'e. hamilton currey'
p2790
I2
sS'edith birkhead'
p2791
I2
sS'robert m. bird'
p2792
I1
sS'mrs. sutherland orr'
p2793
I2
sS'william e. barton, theodore g. soares, sydney strong'
p2794
I2
sS't. phelan'
p2795
I2
sS'd.l. murray'
p2796
I2
sS'm. joseph b\xe9dier'
p2797
I1
sS'vito marcantonio'
p2798
I1
sS'the earl of chesterfield'
p2799
I12
sS'mary e. hanshew'
p2800
I2
sS'p. h. ditchfield'
p2801
I4
sS'zachary  taylor sweeney'
p2802
I2
sS'claude h. miller'
p2803
I2
sS'mrs. henry wood'
p2804
I4
sS'lucy abbot throop'
p2805
I2
sS'alexander l. peterman'
p2806
I1
sS'j. sheridan le fanu'
p2807
I2
sS'bayard tuckerman'
p2808
I2
sS'montrose j. moses'
p2809
I2
sS'editor: james d. richardson'
p2810
I2
sS'george jackson'
p2811
I2
sS'henry harland'
p2812
I4
sS'william george laurence beynon'
p2813
I2
sS'matthew turner'
p2814
I2
sS'horace plunkett'
p2815
I2
sS'mosnar yendis (aka sidney ransom)'
p2816
I1
sS'george van schaick'
p2817
I2
sS'charles w. whistler'
p2818
I4
sS'anthony pryde'
p2819
I1
sS'siegfried sassoon'
p2820
I2
sS'henry c. carey'
p2821
I2
sS'walter kellogg towers'
p2822
I2
sS'gladys m. draycott'
p2823
I2
sS'john hay beith (aka: ian hay)'
p2824
I1
sS'charles lever'
p2825
I6
sS'clyde fitch'
p2826
I4
sS'george bethune english'
p2827
I2
sS'theodore roosevelt'
p2828
I15
sS'george tucker'
p2829
I2
sS'a. d. webster'
p2830
I2
sS'gertrude knevels'
p2831
I1
sS'annie trumbull slosson'
p2832
I1
sS'lunsford lane'
p2833
I1
sS'gilbert chesterton'
p2834
I2
sS'ida lee'
p2835
I1
sS'agnes deans cameron'
p2836
I2
sS'augustine birrell'
p2837
I4
sS'w. watson'
p2838
I2
sS'roland allen'
p2839
I2
sS'cicero'
p2840
I2
sS'annie heloise abel'
p2841
I2
sS'hugh dalton'
p2842
I2
sS'hammurabi, king of babylon'
p2843
I1
sS'joseph lievesley beeston'
p2844
I2
sS'c. suetonius tranquillus'
p2845
I15
sS'john jay smith and john f. watson'
p2846
I11
sS'henry m. brooks'
p2847
I2
sS'petronius arbiter'
p2848
I8
sS'laurence alma tadema'
p2849
I2
sS'edmund william forrest'
p2850
I2
sS'thomson willing'
p2851
I2
sS'mary hartwell catherwood'
p2852
I4
sS'john mcgovern'
p2853
I1
sS'allen kelly'
p2854
I1
sS'helen hunt jackson'
p2855
I7
sS'john hawkesworth'
p2856
I1
sS'brooks adams'
p2857
I2
sS'stella m. francis'
p2858
I1
sS'elizabeth cady stanton'
p2859
I2
sS'rosa mulholland'
p2860
I1
sS'mary h. (mary helen) fee'
p2861
I2
sS'philip pienaar'
p2862
I2
sS'miss lovechild'
p2863
I1
sS'howard j. chidley'
p2864
I2
sS'john l. cotter'
p2865
I1
sS'alfred wesley wishart'
p2866
I2
sS'ruby m. ayres'
p2867
I2
sS'i. zangwill'
p2868
I2
sS'mrs. georgie sheldon'
p2869
I5
sS'charles pierson'
p2870
I2
sS'edward ruppelt'
p2871
I1
sS'john boys'
p2872
I2
sS'bret harte'
p2873
I7
sS'leroy scott'
p2874
I2
sS'george calvert'
p2875
I2
sS'martha everts holden'
p2876
I2
sS'wace'
p2877
I2
sS'fabian franklin'
p2878
I1
sS'david v. bush'
p2879
I1
sS'george agnew chamberlain'
p2880
I3
sS'john forrest'
p2881
I1
sS'edited by james weldon johnson'
p2882
I2
sS'silas weir mitchell'
p2883
I2
sS'clarence budington kelland'
p2884
I1
sS'horace elisha scudder, editor'
p2885
I1
sS'richard jefferies'
p2886
I6
sS'j.w. mahood'
p2887
I1
sS'frances ridley havergal'
p2888
I3
sS'juliette augusta magill kinzie'
p2889
I2
sS'james harrison'
p2890
I4
sS'william t. sherman'
p2891
I7
sS'susan anne livingston ridley sedgwick'
p2892
I2
sS'cynewulf'
p2893
I2
sS'arthur m. winfield'
p2894
I2
sS'mrs. e. r. pitman'
p2895
I2
sS'leo nikoleyevich tolstoy'
p2896
I2
sS'sophia may (rebecca sophia clarke)'
p2897
I1
sS'w.t. massey'
p2898
I2
sS'sir harry johnston'
p2899
I4
sS'john munro'
p2900
I3
sS'frank marzials'
p2901
I2
sS'edmund spenser'
p2902
I5
sS'john burroughs'
p2903
I2
sS'nelson lloyd'
p2904
I1
sS'mary wollstonecraft'
p2905
I2
sS'mary johnston'
p2906
I8
sS'frank l. packard'
p2907
I2
sS'galen clark'
p2908
I2
sS'william mckinley'
p2909
I4
sS'richard newton'
p2910
I2
sS'roy rockwood'
p2911
I1
sS'annie e. keeling'
p2912
I1
sS'henry nevil payne'
p2913
I2
sS'alpha of the plough (alfred george gardiner)'
p2914
I2
sS'rev. e. j. quigley'
p2915
I1
sS'allan o. hume'
p2916
I2
sS'emile zola'
p2917
I6
sS'thomas dekker'
p2918
I1
sS'thomas d. murphy'
p2919
I1
sS'j. tyrwhitt brooks'
p2920
I2
sS'russell doubleday'
p2921
I4
sS'eugene field'
p2922
I1
sS'frank gee patchin'
p2923
I2
sS'raphael semmes'
p2924
I2
sS't. eric peet'
p2925
I2
sS'robert ballantyne'
p2926
I2
sS'marguerite de valois, queen of navarre'
p2927
I4
sS'walter d. petrovic'
p2928
I1
sS'winston churchill'
p2929
I63
sS'paul laurence dunbar'
p2930
I2
sS'samuel wilderspin'
p2931
I2
sS'a pastor'
p2932
I1
sS'madam campan'
p2933
I1
sS'francis a. adams'
p2934
I1
sS'friedrich von bernhardi'
p2935
I2
sS'homer'
p2936
I2
sS'friedrich j. lehmann'
p2937
I2
sS'francis hodgson burnett'
p2938
I1
sS'edmund gosse'
p2939
I3
sS'william wordsworth and alfred lord tennyson'
p2940
I2
sS'louis becke'
p2941
I2
sS'mary e. herbert'
p2942
I2
sS'frederick palmer'
p2943
I6
sS'mrs. jameson'
p2944
I2
sS'mrs. david osborne'
p2945
I2
sS'boswell'
p2946
I4
sS'james de mille'
p2947
I2
sS'frances reynolds'
p2948
I2
sS'john l. h\xfclshof'
p2949
I1
sS'william heyliger'
p2950
I1
sS'leonid andreyev'
p2951
I2
sS'florence nightingale'
p2952
I4
sS'james runciman'
p2953
I8
sS'william priest'
p2954
I1
sS'john t. mcintyre'
p2955
I2
sS'madame la marquise de montespan'
p2956
I8
sS'charles l. goodrich'
p2957
I2
sS'george b. louis arner'
p2958
I2
sS'william le queux'
p2959
I4
sS'tomas de comyn'
p2960
I1
sS'henry baerlein'
p2961
I2
sS'elinor macartney lane'
p2962
I2
sS'editors: arthur mee and j.a. hammerton'
p2963
I2
sS'leonard huxley'
p2964
I2
sS'charles foster kent and jeremiah whipple jenks'
p2965
I1
sS'emile cammaerts'
p2966
I2
sS'thomas jefferson'
p2967
I11
sS'alice meynell'
p2968
I8
sS'david lester richardson'
p2969
I2
sS'george gissing'
p2970
I3
sS'thomas f. a. smith'
p2971
I2
sS'hayden carruth'
p2972
I1
sS'robinson [and] overton, ed. and translation.'
p2973
I2
sS'w. tudor jones'
p2974
I2
sS'bertha m. clark'
p2975
I2
sS'calvin coolidge'
p2976
I2
sS'charles g. d. roberts'
p2977
I1
sS'mary a. wilson'
p2978
I2
sS's. rappoport'
p2979
I6
sS'edwin bjorkman'
p2980
I2
sS'le gallienne, richard'
p2981
I2
sS'george frederick kunz'
p2982
I2
sS'james godkin'
p2983
I2
sS'ontario ministry of education'
p2984
I2
sS'booth tarkington and harry leon wilson'
p2985
I2
sS'a.v. dicey'
p2986
I2
sS'sophie fox sea'
p2987
I1
sS'william s. gilbert'
p2988
I1
sS'sarah orne jewett'
p2989
I3
sS'franz kafka'
p2990
I1
sS'alvin addison'
p2991
I2
sS'kate douglas smith wiggin'
p2992
I5
sS'sax rohmer'
p2993
I2
sS'charles egbert craddock'
p2994
I2
sS'lydia m. child'
p2995
I1
sS'john mcelroy'
p2996
I5
sS'francis loring payne'
p2997
I2
sS'sara jeannette duncan (aka mrs. everard cotes)'
p2998
I1
sS'stillman, william james'
p2999
I1
sS'mrs. clara moreton'
p3000
I1
sS'charles francis adams'
p3001
I2
sS'augustus thomas'
p3002
I2
sS'revised by alexander leighton'
p3003
I2
sS'frank v. webster'
p3004
I4
sS'dante alighieri'
p3005
I25
sS'amy le feuvre'
p3006
I3
sS'harry de windt'
p3007
I2
sS'margaret ball'
p3008
I2
sS'ridgwell cullum'
p3009
I4
sS'benjamin disraeli'
p3010
I2
sS'ralph connor'
p3011
I1
sS'e.d.e.n. southworth'
p3012
I2
sS'c.h. becker'
p3013
I2
sS'arthur conan doyle'
p3014
I9
sS'edgar rice burroughs'
p3015
I1
sS'kisari mohan ganguli'
p3016
I1
sS'lawrence gilman'
p3017
I4
sS'p. chalmers mitchell'
p3018
I3
sS'e. f. benson'
p3019
I4
sS'william j long'
p3020
I3
sS'grover cleveland'
p3021
I4
sS'w. m. baskervill and j. w. sewell'
p3022
I3
sS'george alfred henty'
p3023
I4
sS'stanley waterloo'
p3024
I3
sS'c. h. herford'
p3025
I2
sS's. elizabeth hall'
p3026
I2
sS'grace livingston hill lutz'
p3027
I2
sS'max beerbohm'
p3028
I2
sS'william dana orcutt'
p3029
I2
sS'edith ballinger price'
p3030
I3
sS'leslie stephen'
p3031
I2
sS'antoine simon maillard'
p3032
I2
sS'jean jacques rousseau'
p3033
I15
sS'henry milner rideout'
p3034
I2
sS'henry alleyne nicholson'
p3035
I2
sS'finley dunne'
p3036
I1
sS'ida b. wells-barnett'
p3037
I4
sS'will n. harben'
p3038
I1
sS'le sage'
p3039
I1
sS'c. f. dowsett'
p3040
I2
sS'sarah s. mower'
p3041
I1
sS'marcus aurelius antoninus'
p3042
I2
sS'dinah maria mulock craik'
p3043
I3
sS'james inglis'
p3044
I2
sS'melvin hix'
p3045
I1
sS'martin r. delany'
p3046
I2
sS'basil hall'
p3047
I2
sS'arthur h. savory'
p3048
I2
sS'mary f. leonard'
p3049
I2
sS"seumas o'brien"
p3050
I1
sS'krishna-dwaipayana vyasa'
p3051
I1
sS'g. w. septimus piesse'
p3052
I2
sS'patrick bronte'
p3053
I1
sS'william henry hurlbert'
p3054
I4
sS'nicholas rowe'
p3055
I2
sS'charles frederic goss'
p3056
I2
sS'frank nelson palmer'
p3057
I1
sS'margaret mccarter'
p3058
I2
sS'james parton'
p3059
I2
sS'frances h. burnett'
p3060
I1
sS'william hawley smith'
p3061
I1
sS'juliana horatia ewing'
p3062
I8
sS'cornelia stratton parker'
p3063
I2
sS'thomas cochrane, tenth earl of dundonald'
p3064
I4
sS'john kline'
p3065
I2
sS'm. leonora eyles'
p3066
I2
sS'h.d. traill'
p3067
I2
sS'martha  finley'
p3068
I2
sS'arthur jerome eddy'
p3069
I2
sS'auguste vimar'
p3070
I2
sS'louisiana purchase exposition commission'
p3071
I2
sS'h. byerley thomson'
p3072
I2
sS'francois rabelais'
p3073
I6
sS'arthur helps'
p3074
I1
sS'jack london'
p3075
I23
sS'george william curtis'
p3076
I2
sS'john jay smith'
p3077
I13
sS't. w. rolleston'
p3078
I2
sS'francis w. doughty'
p3079
I1
sS'camilla kenyon'
p3080
I1
sS'horace smith'
p3081
I1
sS'r. f. murray'
p3082
I1
sS'william d. howells'
p3083
I1
sS'virginia sharpe patterson'
p3084
I2
sS'j. henri fabre'
p3085
I1
sS'charles king'
p3086
I4
sS'henry rogers'
p3087
I3
sS'james constantine pilling'
p3088
I3
sS'h. g. (herbert george) wells'
p3089
I3
sS'robert shaler'
p3090
I4
sS'alexander dumas, pere'
p3091
I1
sS'hildegard g. frey'
p3092
I5
sS'george a. warren'
p3093
I2
sS'dean conant worcester'
p3094
I2
sS'mary hunter austin'
p3095
I2
sS'e. c. gardner'
p3096
I2
sS'giacomo casanova (aka jacques casanova de seingalt)'
p3097
I1
sS'louis tracy'
p3098
I6
sS'william ritchie sorley'
p3099
I2
sS'e. b. havell'
p3100
I2
sS'frederic george trayes'
p3101
I2
sS'sun tzu'
p3102
I1
sS'george w. williams'
p3103
I2
sS'susan coolidge'
p3104
I2
sS'christopher hare'
p3105
I2
sS'arthur mee'
p3106
I2
sS'william j. dawson'
p3107
I2
sS'thomas edward gordon'
p3108
I2
sS's.c. hill'
p3109
I2
sS'jean ingelow'
p3110
I6
sS'annie besant'
p3111
I11
sS'slason thompson'
p3112
I4
sS'elias avery lowe and edward kennard rand'
p3113
I3
sS'thomas h. huxley'
p3114
I2
sS'j. c. meem'
p3115
I2
sS'corbyn morris'
p3116
I2
sS'edgar a. guest'
p3117
I3
sS'sir john carr'
p3118
I2
sS'mary ann h. t. bigelow'
p3119
I2
sS'a. clutton-brock'
p3120
I2
sS'colonel william thompson'
p3121
I1
sS'anthony hamilton'
p3122
I9
sS'c. c. long'
p3123
I1
sS'john linwood pitts'
p3124
I2
sS'john franklin'
p3125
I1
sS'alfred de vigny'
p3126
I1
sS'washington irving'
p3127
I8
sS'kenelm digby'
p3128
I2
sS'george a. aitken'
p3129
I3
sS'henry edward crampton'
p3130
I2
sS'george adam smith'
p3131
I1
sS'sophie jewett'
p3132
I2
sS'henry francis cary'
p3133
I2
sS'william pittman lett'
p3134
I2
sS'bob evans'
p3135
I2
sS'sara cone bryant'
p3136
I4
sS'joseph r. grismer'
p3137
I2
sS'mary frances cusack'
p3138
I2
sS'katharine blunt, frances l. swain, and florence powdermaker'
p3139
I2
sS't. r. ashworth and h. p. c. ashworth'
p3140
I2
sS'john conrade amman'
p3141
I2
sS'cyrus pringle'
p3142
I2
sS'thomas runciman'
p3143
I2
sS'lurana w. sheldon'
p3144
I1
sS'bourrienne, constant, and stewarton'
p3145
I1
sS'david belasco'
p3146
I4
sS'james johnson'
p3147
I1
sS'james otis'
p3148
I2
sS'abigail stanley hanna'
p3149
I1
sS'a. w. duncan'
p3150
I2
sS'henry drummond'
p3151
I3
sS'american anti-slavery society'
p3152
I11
sS'nicola francesco haym'
p3153
I1
sS'cornelis de witt willcox'
p3154
I2
sS'peter rosegger'
p3155
I2
sS'florence daniel'
p3156
I2
sS'george du maurier'
p3157
I2
sS'edward lear'
p3158
I8
sS'margaret j. preston'
p3159
I2
sS'mark rutherford'
p3160
I3
sS'james b. kennedy'
p3161
I2
sS'gilbert parker'
p3162
I34
sS'pansy'
p3163
I2
sS'm.p. shiel'
p3164
I4
sS'george stuart fullerton'
p3165
I2
sS'lacy collison-morley'
p3166
I2
sS'charles dickens'
p3167
I16
sS'elihu burritt'
p3168
I1
sS'thomas more'
p3169
I3
sS'james henry foss'
p3170
I2
sS'sir ernest shackleton'
p3171
I1
sS'albert rhys williams'
p3172
I2
sS'john mason tyler'
p3173
I2
sS'edmund waller; john denham'
p3174
I2
sS'benjamin drake'
p3175
I2
sS'countess elizabeth von arnim'
p3176
I2
sS'george m. wrong'
p3177
I2
sS'a. l. mayhew and walter w. skeat'
p3178
I1
sS'clarence squareman'
p3179
I1
sS'jonathan steadfast'
p3180
I1
sS'john g. nicolay'
p3181
I2
sS'kermit roosevelt'
p3182
I2
sS'sereno d. clark'
p3183
I1
sS'david w. bartlett'
p3184
I1
sS'george (george augustus) moore'
p3185
I2
sS'valentine williams'
p3186
I2
sS'edmund h. new'
p3187
I2
sS'charles hanson towne'
p3188
I2
sS'philip thicknesse'
p3189
I4
sS'edward s. ellis'
p3190
I11
sS'mary mapes dodge'
p3191
I1
sS'jessie graham flower'
p3192
I2
sS'charles duke yonge'
p3193
I4
sS'jane grey cannon swisshelm'
p3194
I1
sS'edward stratemeyer'
p3195
I3
sS'j. h. willard'
p3196
I1
sS'eunice tietjens'
p3197
I2
sS'fannie  hurst'
p3198
I2
sS'william allan chapple'
p3199
I2
sS'jacob stroyer'
p3200
I1
sS'irene elliott benson'
p3201
I1
sS'henry c. lahee'
p3202
I2
sS'louis p. benezet'
p3203
I3
sS'henry adams'
p3204
I2
sS'steward edward white'
p3205
I3
sS'anne warner'
p3206
I4
sS'carter goodloe'
p3207
I2
sS'e. temple thurston'
p3208
I1
sS'herbert spencer'
p3209
I2
sS'frederick litchfield'
p3210
I2
sS'n. e. dionne'
p3211
I2
sS'william dean howells'
p3212
I50
sS'kathleen burke'
p3213
I3
sS'mary j. holmes'
p3214
I14
sS'p. h. sheridan'
p3215
I5
sS'henry hubert knibbs'
p3216
I2
sS'thornton w. burgess'
p3217
I8
stp3218
Rp3219
.